
FPGA_Ram.elf:     file format elf32-tradlittlemips


Disassembly of section .text_init:

bfc00000 <__reset_vector>:
C:\Users\Hust\Desktop\Peripheral_Interface_lab\MIPSfpga_ADT7420_C/boot.S:63
/**************************************************************************************
    R E S E T   E X C E P T I O N   H A N D L E R
**************************************************************************************/

LEAF(__reset_vector)
    la a2,__cpu_init
bfc00000:	3c06bfc0 	lui	a2,0xbfc0
bfc00004:	24c60014 	addiu	a2,a2,20
C:\Users\Hust\Desktop\Peripheral_Interface_lab\MIPSfpga_ADT7420_C/boot.S:64
    jr a2
bfc00008:	00c00008 	jr	a2
C:\Users\Hust\Desktop\Peripheral_Interface_lab\MIPSfpga_ADT7420_C/boot.S:65
    mtc0    $0, C0_COUNT        # Clear cp0 Count (Used to measure boot time.)
bfc0000c:	40804800 	mtc0	zero,c0_count
C:\Users\Hust\Desktop\Peripheral_Interface_lab\MIPSfpga_ADT7420_C/boot.S:66
    nop
bfc00010:	00000000 	nop

bfc00014 <__cpu_init>:
C:\Users\Hust\Desktop\Peripheral_Interface_lab\MIPSfpga_ADT7420_C/boot.S:75
LEAF(__cpu_init)

    # Verify the code is here due to a reset and not NMI. If this is an NMI then trigger
    # a debugger breakpoint using a sdbp instruction.

    mfc0    s1, C0_STATUS       # Read CP0 Status
bfc00014:	40116000 	mfc0	s1,c0_status
C:\Users\Hust\Desktop\Peripheral_Interface_lab\MIPSfpga_ADT7420_C/boot.S:76
    ext     s1, s1, 19, 1       # extract NMI
bfc00018:	7e3104c0 	ext	s1,s1,0x13,0x1
C:\Users\Hust\Desktop\Peripheral_Interface_lab\MIPSfpga_ADT7420_C/boot.S:77
    beqz    s1, init_resources  # Branch if this is NOT an NMI exception.
bfc0001c:	12200002 	beqz	s1,bfc00028 <init_resources>
C:\Users\Hust\Desktop\Peripheral_Interface_lab\MIPSfpga_ADT7420_C/boot.S:78
    nop
bfc00020:	00000000 	nop
C:\Users\Hust\Desktop\Peripheral_Interface_lab\MIPSfpga_ADT7420_C/boot.S:79
    sdbbp                       # Failed assertion: NMI.
bfc00024:	7000003f 	sdbbp

bfc00028 <init_resources>:
C:\Users\Hust\Desktop\Peripheral_Interface_lab\MIPSfpga_ADT7420_C/boot.S:85

init_resources:                 # initializes resources for "cpu".

    # Initialize CP0 registers

    la a2,      init_cp0        # Init CP0 Status, Count, Compare, Watch*, and Cause.
bfc00028:	3c06bfc0 	lui	a2,0xbfc0
bfc0002c:	24c6049c 	addiu	a2,a2,1180
C:\Users\Hust\Desktop\Peripheral_Interface_lab\MIPSfpga_ADT7420_C/boot.S:86
    jalr a2
bfc00030:	00c0f809 	jalr	a2
C:\Users\Hust\Desktop\Peripheral_Interface_lab\MIPSfpga_ADT7420_C/boot.S:87
    nop
bfc00034:	00000000 	nop
C:\Users\Hust\Desktop\Peripheral_Interface_lab\MIPSfpga_ADT7420_C/boot.S:118
  #  jalr    a2
  #  nop

    # Prepare for eret to main.

    la      ra, all_done        # If main returns then go to all_done:.
bfc00038:	3c1fbfc0 	lui	ra,0xbfc0
bfc0003c:	27ff0058 	addiu	ra,ra,88
C:\Users\Hust\Desktop\Peripheral_Interface_lab\MIPSfpga_ADT7420_C/boot.S:119
    move    a0, zero            # Indicate that there are no arguments available.
bfc00040:	00002021 	move	a0,zero
C:\Users\Hust\Desktop\Peripheral_Interface_lab\MIPSfpga_ADT7420_C/boot.S:120
    la      v0, _start          # load the address of the CRT entry point _start.
bfc00044:	3c02bfc0 	lui	v0,0xbfc0
bfc00048:	24420508 	addiu	v0,v0,1288
C:\Users\Hust\Desktop\Peripheral_Interface_lab\MIPSfpga_ADT7420_C/boot.S:121
    mtc0    v0, $30             # Write ErrorEPC with the address of main
bfc0004c:	4082f000 	mtc0	v0,c0_errorepc
C:\Users\Hust\Desktop\Peripheral_Interface_lab\MIPSfpga_ADT7420_C/boot.S:122
    ehb                         # clear hazards (makes sure write to ErrorPC has completed)
bfc00050:	000000c0 	ehb
C:\Users\Hust\Desktop\Peripheral_Interface_lab\MIPSfpga_ADT7420_C/boot.S:126

    # Return from exception will now execute code in main

    eret                        # Exit reset exception handler and start execution of _start.
bfc00054:	42000018 	eret

bfc00058 <all_done>:
C:\Users\Hust\Desktop\Peripheral_Interface_lab\MIPSfpga_ADT7420_C/boot.S:132


/**************************************************************************************/
all_done:
    # If main returns it will return to this point.  Just spin here.
    b       all_done
bfc00058:	1000ffff 	b	bfc00058 <all_done>
C:\Users\Hust\Desktop\Peripheral_Interface_lab\MIPSfpga_ADT7420_C/boot.S:133
    nop
bfc0005c:	00000000 	nop

bfc00060 <init_icache>:
C:\Users\Hust\Desktop\Peripheral_Interface_lab\MIPSfpga_ADT7420_C/init_caches.S:60
LEAF(init_icache)

	// Can be skipped if using magic simulation cache flush

	// Determine how big the I$ is
	mfc0	v0, C0_CONFIG1		// read C0_Config1
bfc00060:	40028001 	mfc0	v0,c0_config1
C:\Users\Hust\Desktop\Peripheral_Interface_lab\MIPSfpga_ADT7420_C/init_caches.S:63

	// Isolate I$ Line Size
	ext	    v1, v0, CFG1_ILSHIFT, 3		// extract IL
bfc00064:	7c4314c0 	ext	v1,v0,0x13,0x3
C:\Users\Hust\Desktop\Peripheral_Interface_lab\MIPSfpga_ADT7420_C/init_caches.S:66

	// Skip ahead if No I$
	beq	    v1, zero, done_icache
bfc00068:	10600011 	beqz	v1,bfc000b0 <done_icache>
C:\Users\Hust\Desktop\Peripheral_Interface_lab\MIPSfpga_ADT7420_C/init_caches.S:67
	nop
bfc0006c:	00000000 	nop
C:\Users\Hust\Desktop\Peripheral_Interface_lab\MIPSfpga_ADT7420_C/init_caches.S:69

	li	    a2, 2
bfc00070:	24060002 	li	a2,2
C:\Users\Hust\Desktop\Peripheral_Interface_lab\MIPSfpga_ADT7420_C/init_caches.S:70
	sllv    v1, a2, v1			// Now have true I$ line size in bytes
bfc00074:	00661804 	sllv	v1,a2,v1
C:\Users\Hust\Desktop\Peripheral_Interface_lab\MIPSfpga_ADT7420_C/init_caches.S:72

	ext	    a0, v0, CFG1_ISSHIFT, 3		// extract IS
bfc00078:	7c441580 	ext	a0,v0,0x16,0x3
C:\Users\Hust\Desktop\Peripheral_Interface_lab\MIPSfpga_ADT7420_C/init_caches.S:73
	li	    a2, 64
bfc0007c:	24060040 	li	a2,64
C:\Users\Hust\Desktop\Peripheral_Interface_lab\MIPSfpga_ADT7420_C/init_caches.S:74
	sllv    a0, a2, a0			// I$ Sets per way
bfc00080:	00862004 	sllv	a0,a2,a0
C:\Users\Hust\Desktop\Peripheral_Interface_lab\MIPSfpga_ADT7420_C/init_caches.S:77

	// Config1IA == I$ Assoc - 1
	ext	    a1, v0, CFG1_IASHIFT, 3		// extract IA
bfc00084:	7c451400 	ext	a1,v0,0x10,0x3
C:\Users\Hust\Desktop\Peripheral_Interface_lab\MIPSfpga_ADT7420_C/init_caches.S:78
	add	    a1, 1
bfc00088:	20a50001 	addi	a1,a1,1
C:\Users\Hust\Desktop\Peripheral_Interface_lab\MIPSfpga_ADT7420_C/init_caches.S:80

	mul	    a0, a0, a1			// Total number of sets
bfc0008c:	70852002 	mul	a0,a0,a1
C:\Users\Hust\Desktop\Peripheral_Interface_lab\MIPSfpga_ADT7420_C/init_caches.S:82

	lui	    a2, 0x8000			// Get a KSeg0 address for cacheops
bfc00090:	3c068000 	lui	a2,0x8000
C:\Users\Hust\Desktop\Peripheral_Interface_lab\MIPSfpga_ADT7420_C/init_caches.S:85

	// Clear TagLo/TagHi registers
	mtc0    zero, C0_TAGLO		// write C0_ITagLo
bfc00094:	4080e000 	mtc0	zero,c0_taglo
C:\Users\Hust\Desktop\Peripheral_Interface_lab\MIPSfpga_ADT7420_C/init_caches.S:86
	mtc0    zero, C0_TAGHI		// write C0_ITagHi
bfc00098:	4080e800 	mtc0	zero,c0_taghi
C:\Users\Hust\Desktop\Peripheral_Interface_lab\MIPSfpga_ADT7420_C/init_caches.S:88

	move    a3, a0
bfc0009c:	00803821 	move	a3,a0

bfc000a0 <next_icache_tag>:
C:\Users\Hust\Desktop\Peripheral_Interface_lab\MIPSfpga_ADT7420_C/init_caches.S:93

next_icache_tag:
	// Index Store Tag Cache Op
	// Will invalidate the tag entry, clear the lock bit, and clear the LRF bit
	cache   0x8, 0(a2)			// ICIndexStTag
bfc000a0:	bcc80000 	cache	0x8,0(a2)
C:\Users\Hust\Desktop\Peripheral_Interface_lab\MIPSfpga_ADT7420_C/init_caches.S:94
	add	    a3, -1				// Decrement set counter
bfc000a4:	20e7ffff 	addi	a3,a3,-1
C:\Users\Hust\Desktop\Peripheral_Interface_lab\MIPSfpga_ADT7420_C/init_caches.S:95
	bne     a3, zero, next_icache_tag
bfc000a8:	14e0fffd 	bnez	a3,bfc000a0 <next_icache_tag>
C:\Users\Hust\Desktop\Peripheral_Interface_lab\MIPSfpga_ADT7420_C/init_caches.S:96
	add     a2, v1				// Get next line address
bfc000ac:	00c33020 	add	a2,a2,v1

bfc000b0 <done_icache>:
C:\Users\Hust\Desktop\Peripheral_Interface_lab\MIPSfpga_ADT7420_C/init_caches.S:100

done_icache:

    jr      ra
bfc000b0:	03e00008 	jr	ra
C:\Users\Hust\Desktop\Peripheral_Interface_lab\MIPSfpga_ADT7420_C/init_caches.S:101
    nop
bfc000b4:	00000000 	nop

bfc000b8 <init_dcache>:
C:\Users\Hust\Desktop\Peripheral_Interface_lab\MIPSfpga_ADT7420_C/init_caches.S:110
* init_dcache invalidates all data cache entries
**************************************************************************************/

LEAF(init_dcache)

	mfc0	v0, C0_CONFIG1		// read C0_Config1
bfc000b8:	40028001 	mfc0	v0,c0_config1
C:\Users\Hust\Desktop\Peripheral_Interface_lab\MIPSfpga_ADT7420_C/init_caches.S:113

	// Isolate D$ Line Size
	ext	    v1, v0, CFG1_DLSHIFT, 3		// extract DL
bfc000bc:	7c431280 	ext	v1,v0,0xa,0x3
C:\Users\Hust\Desktop\Peripheral_Interface_lab\MIPSfpga_ADT7420_C/init_caches.S:116

	// Skip ahead if No D$
	beq	    v1, zero, done_dcache
bfc000c0:	10600013 	beqz	v1,bfc00110 <done_dcache>
C:\Users\Hust\Desktop\Peripheral_Interface_lab\MIPSfpga_ADT7420_C/init_caches.S:117
	nop
bfc000c4:	00000000 	nop
C:\Users\Hust\Desktop\Peripheral_Interface_lab\MIPSfpga_ADT7420_C/init_caches.S:119

	li	    a2, 2
bfc000c8:	24060002 	li	a2,2
C:\Users\Hust\Desktop\Peripheral_Interface_lab\MIPSfpga_ADT7420_C/init_caches.S:120
	sllv	v1, a2, v1			// Now have true D$ line size in bytes
bfc000cc:	00661804 	sllv	v1,a2,v1
C:\Users\Hust\Desktop\Peripheral_Interface_lab\MIPSfpga_ADT7420_C/init_caches.S:122

	ext	    a0, v0, CFG1_DSSHIFT, 3		// extract DS
bfc000d0:	7c441340 	ext	a0,v0,0xd,0x3
C:\Users\Hust\Desktop\Peripheral_Interface_lab\MIPSfpga_ADT7420_C/init_caches.S:123
	li	    a2, 64
bfc000d4:	24060040 	li	a2,64
C:\Users\Hust\Desktop\Peripheral_Interface_lab\MIPSfpga_ADT7420_C/init_caches.S:124
	sllv	a0, a2, a0	// D$ Sets per way
bfc000d8:	00862004 	sllv	a0,a2,a0
C:\Users\Hust\Desktop\Peripheral_Interface_lab\MIPSfpga_ADT7420_C/init_caches.S:127

	// Config1DA == D$ Assoc - 1
	ext	    a1, v0, CFG1_DASHIFT, 3		// extract DA
bfc000dc:	7c4511c0 	ext	a1,v0,0x7,0x3
C:\Users\Hust\Desktop\Peripheral_Interface_lab\MIPSfpga_ADT7420_C/init_caches.S:128
	add	    a1, 1
bfc000e0:	20a50001 	addi	a1,a1,1
C:\Users\Hust\Desktop\Peripheral_Interface_lab\MIPSfpga_ADT7420_C/init_caches.S:130

	mul	    a0, a0, a1			// Get total number of sets
bfc000e4:	70852002 	mul	a0,a0,a1
C:\Users\Hust\Desktop\Peripheral_Interface_lab\MIPSfpga_ADT7420_C/init_caches.S:132

	lui	    a2, 0x8000		    // Get a KSeg0 address for cacheops
bfc000e8:	3c068000 	lui	a2,0x8000
C:\Users\Hust\Desktop\Peripheral_Interface_lab\MIPSfpga_ADT7420_C/init_caches.S:135

	// Clear TagLo/TagHi registers
	mtc0	zero, C0_TAGLO		// write C0_TagLo
bfc000ec:	4080e000 	mtc0	zero,c0_taglo
C:\Users\Hust\Desktop\Peripheral_Interface_lab\MIPSfpga_ADT7420_C/init_caches.S:136
	mtc0	zero, C0_TAGHI		// write C0_TagHi
bfc000f0:	4080e800 	mtc0	zero,c0_taghi
C:\Users\Hust\Desktop\Peripheral_Interface_lab\MIPSfpga_ADT7420_C/init_caches.S:137
	mtc0	zero, C0_TAGLO, 2	// write C0_DTagLo
bfc000f4:	4080e002 	mtc0	zero,c0_taglo1
C:\Users\Hust\Desktop\Peripheral_Interface_lab\MIPSfpga_ADT7420_C/init_caches.S:138
	mtc0	zero, C0_TAGHI, 2	// write C0_DTagHi
bfc000f8:	4080e802 	mtc0	zero,c0_taghi1
C:\Users\Hust\Desktop\Peripheral_Interface_lab\MIPSfpga_ADT7420_C/init_caches.S:140

	move	a3, a0
bfc000fc:	00803821 	move	a3,a0

bfc00100 <next_dcache_tag>:
C:\Users\Hust\Desktop\Peripheral_Interface_lab\MIPSfpga_ADT7420_C/init_caches.S:146

next_dcache_tag:
	// Index Store Tag Cache Op
	// Will invalidate the tag entry, clear the lock bit, and clear the LRF bit

    cache	0x9, 0(a2)			// DCIndexStTag
bfc00100:	bcc90000 	cache	0x9,0(a2)
C:\Users\Hust\Desktop\Peripheral_Interface_lab\MIPSfpga_ADT7420_C/init_caches.S:147
	add	    a3, -1			    // Decrement set counter
bfc00104:	20e7ffff 	addi	a3,a3,-1
C:\Users\Hust\Desktop\Peripheral_Interface_lab\MIPSfpga_ADT7420_C/init_caches.S:149

	bne	    a3, zero, next_dcache_tag
bfc00108:	14e0fffd 	bnez	a3,bfc00100 <next_dcache_tag>
C:\Users\Hust\Desktop\Peripheral_Interface_lab\MIPSfpga_ADT7420_C/init_caches.S:150
	add	    a2, v1		    	// Get next line address
bfc0010c:	00c33020 	add	a2,a2,v1

bfc00110 <done_dcache>:
C:\Users\Hust\Desktop\Peripheral_Interface_lab\MIPSfpga_ADT7420_C/init_caches.S:153

done_dcache:
    jr      ra
bfc00110:	03e00008 	jr	ra
C:\Users\Hust\Desktop\Peripheral_Interface_lab\MIPSfpga_ADT7420_C/init_caches.S:154
    nop
bfc00114:	00000000 	nop

bfc00118 <change_k0_cca>:
C:\Users\Hust\Desktop\Peripheral_Interface_lab\MIPSfpga_ADT7420_C/init_caches.S:160
END(init_dcache)

LEAF(change_k0_cca)
	// NOTE! This code must be executed in KSEG1 (not KSGE0 uncached)
    // Set CCA for kseg0 to cacheable
	mfc0	v0, C0_CONFIG	// read C0_Config
bfc00118:	40028000 	mfc0	v0,c0_config
C:\Users\Hust\Desktop\Peripheral_Interface_lab\MIPSfpga_ADT7420_C/init_caches.S:161
	li	v1, 3			// CCA for single-core processors
bfc0011c:	24030003 	li	v1,3
C:\Users\Hust\Desktop\Peripheral_Interface_lab\MIPSfpga_ADT7420_C/init_caches.S:162
      ins	v0, v1, 0, 3	// insert K0
bfc00120:	7c621004 	ins	v0,v1,0x0,0x3
C:\Users\Hust\Desktop\Peripheral_Interface_lab\MIPSfpga_ADT7420_C/init_caches.S:163
	mtc0	v0, C0_CONFIG	// write C0_Config
bfc00124:	40828000 	mtc0	v0,c0_config
C:\Users\Hust\Desktop\Peripheral_Interface_lab\MIPSfpga_ADT7420_C/init_caches.S:164
	jr.hb   ra
bfc00128:	03e00408 	jr.hb	ra
C:\Users\Hust\Desktop\Peripheral_Interface_lab\MIPSfpga_ADT7420_C/init_caches.S:165
    	nop
bfc0012c:	00000000 	nop
	...
C:\Users\Hust\Desktop\Peripheral_Interface_lab\MIPSfpga_ADT7420_C/boot.S:148
**************************************************************************************/
/* NOTE: the linker script must insure that this code starts at start + 0x200 so the exception */
/* vectors will be addressed properly. All .org assume this! */
/* TLB refill, 32 bit task. */
.org 0x180						# interrupt exception
	la a2,  __exception_entry   # prepare to enter the uart irq handler.
bfc00180:	3c06bfc0 	lui	a2,0xbfc0
bfc00184:	24c605c8 	addiu	a2,a2,1480
C:\Users\Hust\Desktop\Peripheral_Interface_lab\MIPSfpga_ADT7420_C/boot.S:149
    jr a2
bfc00188:	00c00008 	jr	a2
C:\Users\Hust\Desktop\Peripheral_Interface_lab\MIPSfpga_ADT7420_C/boot.S:150
    nop
bfc0018c:	00000000 	nop
	...
C:\Users\Hust\Desktop\Peripheral_Interface_lab\MIPSfpga_ADT7420_C/boot.S:155

	
.org 0x200                      # TLB refill, 32 bit task.
	# display alternating one-zeros on board LEDs
    li      k0, BOARD_16_LEDS_ADDR  # Board LEDs display
bfc00200:	3c1ab060 	lui	k0,0xb060
C:\Users\Hust\Desktop\Peripheral_Interface_lab\MIPSfpga_ADT7420_C/boot.S:156
    li      k1, 0x1111          # alternating one-zeros
bfc00204:	241b1111 	li	k1,4369
C:\Users\Hust\Desktop\Peripheral_Interface_lab\MIPSfpga_ADT7420_C/boot.S:157
    sw      k1, 0(k0)           # Write pattern to LEDs
bfc00208:	af5b0000 	sw	k1,0(k0)
C:\Users\Hust\Desktop\Peripheral_Interface_lab\MIPSfpga_ADT7420_C/boot.S:158
    eret
bfc0020c:	42000018 	eret
C:\Users\Hust\Desktop\Peripheral_Interface_lab\MIPSfpga_ADT7420_C/boot.S:159
    nop
bfc00210:	00000000 	nop
C:\Users\Hust\Desktop\Peripheral_Interface_lab\MIPSfpga_ADT7420_C/boot.S:163
	#la a2,  __exception_entry   # prepare to enter the uart irq handler.
    #jr a2
    #nop
    sdbbp                       # This has the effect of starting the debugger
bfc00214:	7000003f 	sdbbp
	...
C:\Users\Hust\Desktop\Peripheral_Interface_lab\MIPSfpga_ADT7420_C/boot.S:168
    nop

.org 0x280                      # XTLB refill, 64 bit task. start + 0x280
	# display alternating one-zeros on board LEDs
    li      k0, BOARD_16_LEDS_ADDR  # Board LEDs display
bfc00280:	3c1ab060 	lui	k0,0xb060
C:\Users\Hust\Desktop\Peripheral_Interface_lab\MIPSfpga_ADT7420_C/boot.S:169
    li      k1, 0x3333          # alternating one-zeros
bfc00284:	241b3333 	li	k1,13107
C:\Users\Hust\Desktop\Peripheral_Interface_lab\MIPSfpga_ADT7420_C/boot.S:170
    sw      k1, 0(k0)           # Write pattern to LEDs
bfc00288:	af5b0000 	sw	k1,0(k0)
C:\Users\Hust\Desktop\Peripheral_Interface_lab\MIPSfpga_ADT7420_C/boot.S:171
    eret
bfc0028c:	42000018 	eret
C:\Users\Hust\Desktop\Peripheral_Interface_lab\MIPSfpga_ADT7420_C/boot.S:172
    nop
bfc00290:	00000000 	nop
C:\Users\Hust\Desktop\Peripheral_Interface_lab\MIPSfpga_ADT7420_C/boot.S:173
    sdbbp                       # This has the effect of starting the debugger
bfc00294:	7000003f 	sdbbp
	...
C:\Users\Hust\Desktop\Peripheral_Interface_lab\MIPSfpga_ADT7420_C/boot.S:178
    nop

	
.org 0x300                      # Cache error exception. start + 0x300
    sdbbp                       # This has the effect of starting the debugger
bfc00300:	7000003f 	sdbbp
C:\Users\Hust\Desktop\Peripheral_Interface_lab\MIPSfpga_ADT7420_C/boot.S:179
    nop
bfc00304:	00000000 	nop

bfc00308 <init_tlb>:
C:\Users\Hust\Desktop\Peripheral_Interface_lab\MIPSfpga_ADT7420_C/init_tlb.S:57
**************************************************************************************/
LEAF(init_tlb)

check_for_tlb:
	// Determine if we have a TLB
	mfc0    v1, C0_CONFIG			// read C0_Config
bfc00308:	40038000 	mfc0	v1,c0_config
C:\Users\Hust\Desktop\Peripheral_Interface_lab\MIPSfpga_ADT7420_C/init_tlb.S:58
	ext	    v1, v1, 7, 3			// extract MT field
bfc0030c:	7c6311c0 	ext	v1,v1,0x7,0x3
C:\Users\Hust\Desktop\Peripheral_Interface_lab\MIPSfpga_ADT7420_C/init_tlb.S:59
	li	    a3, 0x1					// load a 1 to check against
bfc00310:	24070001 	li	a3,1
C:\Users\Hust\Desktop\Peripheral_Interface_lab\MIPSfpga_ADT7420_C/init_tlb.S:60
	bne	    v1, a3, done_init_tlb
bfc00314:	1467000f 	bne	v1,a3,bfc00354 <done_init_tlb>
C:\Users\Hust\Desktop\Peripheral_Interface_lab\MIPSfpga_ADT7420_C/init_tlb.S:61
	mfc0    v0, C0_CONFIG1			// C0_Config1
bfc00318:	40028001 	mfc0	v0,c0_config1
C:\Users\Hust\Desktop\Peripheral_Interface_lab\MIPSfpga_ADT7420_C/init_tlb.S:62
	nop
bfc0031c:	00000000 	nop

bfc00320 <start_init_tlb>:
C:\Users\Hust\Desktop\Peripheral_Interface_lab\MIPSfpga_ADT7420_C/init_tlb.S:66

start_init_tlb:
	// Config1MMUSize == Number of TLB entries - 1
	ext     v1, v0, CFG1_MMUSSHIFT, 6 // extract MMU Size
bfc00320:	7c432e40 	ext	v1,v0,0x19,0x6
C:\Users\Hust\Desktop\Peripheral_Interface_lab\MIPSfpga_ADT7420_C/init_tlb.S:67
	mtc0    zero, C0_ENTRYLO0		// write C0_EntryLo0
bfc00324:	40801000 	mtc0	zero,c0_entrylo0
C:\Users\Hust\Desktop\Peripheral_Interface_lab\MIPSfpga_ADT7420_C/init_tlb.S:68
	mtc0    zero, C0_ENTRYLO1		// write C0_EntryLo1
bfc00328:	40801800 	mtc0	zero,c0_entrylo1
C:\Users\Hust\Desktop\Peripheral_Interface_lab\MIPSfpga_ADT7420_C/init_tlb.S:69
	mtc0    zero, C0_PAGEMASK		// write C0_PageMask
bfc0032c:	40802800 	mtc0	zero,c0_pagemask
C:\Users\Hust\Desktop\Peripheral_Interface_lab\MIPSfpga_ADT7420_C/init_tlb.S:70
	mtc0    zero, C0_WIRED			// write C0_Wired
bfc00330:	40803000 	mtc0	zero,c0_wired
C:\Users\Hust\Desktop\Peripheral_Interface_lab\MIPSfpga_ADT7420_C/init_tlb.S:71
	li	    a0, 0x80000000
bfc00334:	3c048000 	lui	a0,0x8000

bfc00338 <next_tlb_entry_pair>:
C:\Users\Hust\Desktop\Peripheral_Interface_lab\MIPSfpga_ADT7420_C/init_tlb.S:74

next_tlb_entry_pair:
	mtc0    v1, C0_INDEX			// write C0_Index
bfc00338:	40830000 	mtc0	v1,c0_index
C:\Users\Hust\Desktop\Peripheral_Interface_lab\MIPSfpga_ADT7420_C/init_tlb.S:75
	mtc0	a0, C0_ENTRYHI			// write C0_EntryHi
bfc0033c:	40845000 	mtc0	a0,c0_entryhi
C:\Users\Hust\Desktop\Peripheral_Interface_lab\MIPSfpga_ADT7420_C/init_tlb.S:76
	ehb
bfc00340:	000000c0 	ehb
C:\Users\Hust\Desktop\Peripheral_Interface_lab\MIPSfpga_ADT7420_C/init_tlb.S:77
	tlbwi
bfc00344:	42000002 	tlbwi
C:\Users\Hust\Desktop\Peripheral_Interface_lab\MIPSfpga_ADT7420_C/init_tlb.S:78
	add	    a0, (2<<13)				// Add 8K to the address to avoid TLB conflict with previous entry
bfc00348:	20844000 	addi	a0,a0,16384
C:\Users\Hust\Desktop\Peripheral_Interface_lab\MIPSfpga_ADT7420_C/init_tlb.S:80

	bne		v1, zero, next_tlb_entry_pair
bfc0034c:	1460fffa 	bnez	v1,bfc00338 <next_tlb_entry_pair>
C:\Users\Hust\Desktop\Peripheral_Interface_lab\MIPSfpga_ADT7420_C/init_tlb.S:81
	add	    v1, -1
bfc00350:	2063ffff 	addi	v1,v1,-1

bfc00354 <done_init_tlb>:
C:\Users\Hust\Desktop\Peripheral_Interface_lab\MIPSfpga_ADT7420_C/init_tlb.S:84

done_init_tlb:
    jr      ra
bfc00354:	03e00008 	jr	ra
C:\Users\Hust\Desktop\Peripheral_Interface_lab\MIPSfpga_ADT7420_C/init_tlb.S:85
    nop
bfc00358:	00000000 	nop
	...
C:\Users\Hust\Desktop\Peripheral_Interface_lab\MIPSfpga_ADT7420_C/boot.S:186
#include "init_tlb.S"


.org 0x380    /* General exception. */
	# disable interrupt
	mfc0    k0, C0_STATUS
bfc00380:	401a6000 	mfc0	k0,c0_status
C:\Users\Hust\Desktop\Peripheral_Interface_lab\MIPSfpga_ADT7420_C/boot.S:187
	la		k1, 0xfffffffe
bfc00384:	241bfffe 	li	k1,-2
C:\Users\Hust\Desktop\Peripheral_Interface_lab\MIPSfpga_ADT7420_C/boot.S:188
	and		k0, k0, k1			# StatusIE = 0
bfc00388:	035bd024 	and	k0,k0,k1
C:\Users\Hust\Desktop\Peripheral_Interface_lab\MIPSfpga_ADT7420_C/boot.S:189
	mtc0	k0, C0_STATUS		# set the Status register to disable interrupt
bfc0038c:	409a6000 	mtc0	k0,c0_status
C:\Users\Hust\Desktop\Peripheral_Interface_lab\MIPSfpga_ADT7420_C/boot.S:190
	ehb
bfc00390:	000000c0 	ehb
C:\Users\Hust\Desktop\Peripheral_Interface_lab\MIPSfpga_ADT7420_C/boot.S:192

	la a2,  __exception_entry   # prepare to enter the uart irq handler.
bfc00394:	3c06bfc0 	lui	a2,0xbfc0
bfc00398:	24c605c8 	addiu	a2,a2,1480
C:\Users\Hust\Desktop\Peripheral_Interface_lab\MIPSfpga_ADT7420_C/boot.S:193
    jr a2
bfc0039c:	00c00008 	jr	a2
C:\Users\Hust\Desktop\Peripheral_Interface_lab\MIPSfpga_ADT7420_C/boot.S:194
    nop
bfc003a0:	00000000 	nop
C:\Users\Hust\Desktop\Peripheral_Interface_lab\MIPSfpga_ADT7420_C/boot.S:197
	
    # display alternating one-zeros on board LEDs
    li      k0, BOARD_16_LEDS_ADDR  # Board LEDs display
bfc003a4:	3c1ab060 	lui	k0,0xb060
C:\Users\Hust\Desktop\Peripheral_Interface_lab\MIPSfpga_ADT7420_C/boot.S:198
    li      k1, 0x5555          # alternating one-zeros
bfc003a8:	241b5555 	li	k1,21845
C:\Users\Hust\Desktop\Peripheral_Interface_lab\MIPSfpga_ADT7420_C/boot.S:199
    sw      k1, 0(k0)           # Write pattern to LEDs
bfc003ac:	af5b0000 	sw	k1,0(k0)
C:\Users\Hust\Desktop\Peripheral_Interface_lab\MIPSfpga_ADT7420_C/boot.S:200
    eret
bfc003b0:	42000018 	eret
	...
C:\Users\Hust\Desktop\Peripheral_Interface_lab\MIPSfpga_ADT7420_C/boot.S:205
    nop

.org 0x400    /* General interrupt. */
    # display alternating one-zeros on board LEDs
    li      k0, BOARD_16_LEDS_ADDR  # Board LEDs display
bfc00400:	3c1ab060 	lui	k0,0xb060
C:\Users\Hust\Desktop\Peripheral_Interface_lab\MIPSfpga_ADT7420_C/boot.S:206
    li      k1, 0x7777          # alternating one-zeros
bfc00404:	241b7777 	li	k1,30583
C:\Users\Hust\Desktop\Peripheral_Interface_lab\MIPSfpga_ADT7420_C/boot.S:207
    sw      k1, 0(k0)           # Write pattern to LEDs
bfc00408:	af5b0000 	sw	k1,0(k0)
C:\Users\Hust\Desktop\Peripheral_Interface_lab\MIPSfpga_ADT7420_C/boot.S:208
    eret
bfc0040c:	42000018 	eret
	...
C:\Users\Hust\Desktop\Peripheral_Interface_lab\MIPSfpga_ADT7420_C/boot.S:216

# If you want the above code to fit into 1k flash you will need to leave out the
# code below. This is the code that covers the debug exception which you normally will not get.

.org 0x480 /* EJTAG debug exception (EJTAG Control Register[ProbTrap] == 0.) */
    li      r24_malta_word, BOARD_16_LEDS_ADDR     # If post boot then $24 is clobbered.
bfc00480:	3c18b060 	lui	t8,0xb060
C:\Users\Hust\Desktop\Peripheral_Interface_lab\MIPSfpga_ADT7420_C/boot.S:217
    mtc0    a0, C0_DESAVE       # DeSave a0
bfc00484:	4084f800 	mtc0	a0,c0_desave
C:\Users\Hust\Desktop\Peripheral_Interface_lab\MIPSfpga_ADT7420_C/boot.S:218
    mfc0    a0, C0_DEPC         # Read DEPC
bfc00488:	4004c000 	mfc0	a0,c0_depc
C:\Users\Hust\Desktop\Peripheral_Interface_lab\MIPSfpga_ADT7420_C/boot.S:219
    sw      a0, 0(r24_malta_word)    # Display lower 16 bits of DEPC if there is not an EJTAG probe.
bfc0048c:	af040000 	sw	a0,0(t8)
C:\Users\Hust\Desktop\Peripheral_Interface_lab\MIPSfpga_ADT7420_C/boot.S:220
    mfc0    a0, C0_DESAVE       # Restore a0
bfc00490:	4004f800 	mfc0	a0,c0_desave
C:\Users\Hust\Desktop\Peripheral_Interface_lab\MIPSfpga_ADT7420_C/boot.S:221
1:  b       1b  /* Stay here */
bfc00494:	1000ffff 	b	bfc00494 <done_init_tlb+0x140>
C:\Users\Hust\Desktop\Peripheral_Interface_lab\MIPSfpga_ADT7420_C/boot.S:222
    nop
bfc00498:	00000000 	nop

bfc0049c <init_cp0>:
C:\Users\Hust\Desktop\Peripheral_Interface_lab\MIPSfpga_ADT7420_C/init_cp0.S:57
**************************************************************************************/
LEAF(init_cp0)

    // Initialize Status
	//li	v1, 0x00400404		// (M_StatusERL | M_StatusIPL1 | M_StatusBEV)
	li	v1, 0x0040fc04			// (M_StatusERL | M_StatusIPL1~IPL6 | M_StatusBEV)
bfc0049c:	3c030040 	lui	v1,0x40
bfc004a0:	3463fc04 	ori	v1,v1,0xfc04
C:\Users\Hust\Desktop\Peripheral_Interface_lab\MIPSfpga_ADT7420_C/init_cp0.S:58
	mtc0	v1, C0_STATUS		// write C0_Status
bfc004a4:	40836000 	mtc0	v1,c0_status
C:\Users\Hust\Desktop\Peripheral_Interface_lab\MIPSfpga_ADT7420_C/init_cp0.S:61

	// Initialize Watch registers if implemented.
	mfc0	v0, C0_CONFIG1		// read C0_Config1
bfc004a8:	40028001 	mfc0	v0,c0_config1
C:\Users\Hust\Desktop\Peripheral_Interface_lab\MIPSfpga_ADT7420_C/init_cp0.S:62
	ext	v1, v0, 3, 1		// extract bit 3 WR (Watch registers implemented)
bfc004ac:	7c4300c0 	ext	v1,v0,0x3,0x1
C:\Users\Hust\Desktop\Peripheral_Interface_lab\MIPSfpga_ADT7420_C/init_cp0.S:63
	beq 	v1, zero, done_wr
bfc004b0:	10600011 	beqz	v1,bfc004f8 <done_wr>
C:\Users\Hust\Desktop\Peripheral_Interface_lab\MIPSfpga_ADT7420_C/init_cp0.S:64
	li    	v1, 0x7				// (M_WatchHiI | M_WatchHiR | M_WatchHiW)
bfc004b4:	24030007 	li	v1,7
C:\Users\Hust\Desktop\Peripheral_Interface_lab\MIPSfpga_ADT7420_C/init_cp0.S:67

	// Clear all possible Watch Status bits and disable watch exceptions
	mtc0	v1, C0_WATCHHI		// write C0_WatchHi0
bfc004b8:	40839800 	mtc0	v1,c0_watchhi
C:\Users\Hust\Desktop\Peripheral_Interface_lab\MIPSfpga_ADT7420_C/init_cp0.S:68
	mtc0	zero, C0_WATCHLO	// write C0_WatchLo0
bfc004bc:	40809000 	mtc0	zero,c0_watchlo
C:\Users\Hust\Desktop\Peripheral_Interface_lab\MIPSfpga_ADT7420_C/init_cp0.S:70

	mtc0	v1, C0_WATCHHI, 1	// write C0_WatchHi1
bfc004c0:	40839801 	mtc0	v1,c0_watchhi,1
C:\Users\Hust\Desktop\Peripheral_Interface_lab\MIPSfpga_ADT7420_C/init_cp0.S:71
	mtc0	zero, C0_WATCHLO, 1	// write C0_WatchLo1
bfc004c4:	40809001 	mtc0	zero,c0_watchlo,1
C:\Users\Hust\Desktop\Peripheral_Interface_lab\MIPSfpga_ADT7420_C/init_cp0.S:73

	mtc0	v1, C0_WATCHHI, 2	// write C0_WatchHi2
bfc004c8:	40839802 	mtc0	v1,c0_watchhi,2
C:\Users\Hust\Desktop\Peripheral_Interface_lab\MIPSfpga_ADT7420_C/init_cp0.S:74
	mtc0	zero, C0_WATCHLO, 2	// write C0_WatchLo2
bfc004cc:	40809002 	mtc0	zero,c0_watchlo,2
C:\Users\Hust\Desktop\Peripheral_Interface_lab\MIPSfpga_ADT7420_C/init_cp0.S:76

	mtc0	v1, C0_WATCHHI, 3	// write C0_WatchHi3
bfc004d0:	40839803 	mtc0	v1,c0_watchhi,3
C:\Users\Hust\Desktop\Peripheral_Interface_lab\MIPSfpga_ADT7420_C/init_cp0.S:77
	mtc0	zero, C0_WATCHLO, 3	// write C0_WatchLo3
bfc004d4:	40809003 	mtc0	zero,c0_watchlo,3
C:\Users\Hust\Desktop\Peripheral_Interface_lab\MIPSfpga_ADT7420_C/init_cp0.S:79

	mtc0	v1, C0_WATCHHI, 4	// write C0_WatchHi4
bfc004d8:	40839804 	mtc0	v1,c0_watchhi,4
C:\Users\Hust\Desktop\Peripheral_Interface_lab\MIPSfpga_ADT7420_C/init_cp0.S:80
	mtc0	zero, C0_WATCHLO, 4	// write C0_WatchLo4
bfc004dc:	40809004 	mtc0	zero,c0_watchlo,4
C:\Users\Hust\Desktop\Peripheral_Interface_lab\MIPSfpga_ADT7420_C/init_cp0.S:82

	mtc0	v1, C0_WATCHHI, 5	// write C0_WatchHi5
bfc004e0:	40839805 	mtc0	v1,c0_watchhi,5
C:\Users\Hust\Desktop\Peripheral_Interface_lab\MIPSfpga_ADT7420_C/init_cp0.S:83
	mtc0	zero, C0_WATCHLO, 5	// write C0_WatchLo5
bfc004e4:	40809005 	mtc0	zero,c0_watchlo,5
C:\Users\Hust\Desktop\Peripheral_Interface_lab\MIPSfpga_ADT7420_C/init_cp0.S:85

	mtc0	v1, C0_WATCHHI, 6	// write C0_WatchHi6
bfc004e8:	40839806 	mtc0	v1,c0_watchhi,6
C:\Users\Hust\Desktop\Peripheral_Interface_lab\MIPSfpga_ADT7420_C/init_cp0.S:86
	mtc0	zero, C0_WATCHLO, 6	// write C0_WatchLo6
bfc004ec:	40809006 	mtc0	zero,c0_watchlo,6
C:\Users\Hust\Desktop\Peripheral_Interface_lab\MIPSfpga_ADT7420_C/init_cp0.S:88

	mtc0	v1, C0_WATCHHI, 7	// write C0_WatchHi7
bfc004f0:	40839807 	mtc0	v1,c0_watchhi,7
C:\Users\Hust\Desktop\Peripheral_Interface_lab\MIPSfpga_ADT7420_C/init_cp0.S:89
	mtc0	zero, C0_WATCHLO, 7	// write C0_WatchLo7
bfc004f4:	40809007 	mtc0	zero,c0_watchlo,7

bfc004f8 <done_wr>:
C:\Users\Hust\Desktop\Peripheral_Interface_lab\MIPSfpga_ADT7420_C/init_cp0.S:94

done_wr:

	// Clear WP bit to avoid watch exception upon user code entry, IV, and software interrupts.
	mtc0	zero, C0_CAUSE		// write C0_Cause: Init AFTER init of CP0 WatchHi/Lo registers.
bfc004f8:	40806800 	mtc0	zero,c0_cause
C:\Users\Hust\Desktop\Peripheral_Interface_lab\MIPSfpga_ADT7420_C/init_cp0.S:97

	// Clear timer interrupt. (Count was cleared at the reset vector to allow timing boot.)
	mtc0	zero, C0_COMPARE	// write C0_Compare
bfc004fc:	40805800 	mtc0	zero,c0_compare
C:\Users\Hust\Desktop\Peripheral_Interface_lab\MIPSfpga_ADT7420_C/init_cp0.S:99

    jr      ra
bfc00500:	03e00008 	jr	ra
C:\Users\Hust\Desktop\Peripheral_Interface_lab\MIPSfpga_ADT7420_C/init_cp0.S:100
	nop
bfc00504:	00000000 	nop

bfc00508 <_start>:
C:\Users\Hust\Desktop\Peripheral_Interface_lab\MIPSfpga_ADT7420_C/mini_crt0.S:60
/**************************************************************************************
**************************************************************************************/
LEAF(_start)

    # Set the global pointer register address to _gp - value set in linker .ld file
    la      gp, _gp             # All share globals.
bfc00508:	3c1c8001 	lui	gp,0x8001
bfc0050c:	279cb328 	addiu	gp,gp,-19672
C:\Users\Hust\Desktop\Peripheral_Interface_lab\MIPSfpga_ADT7420_C/mini_crt0.S:63

    # Set up the stack pointer register to STACK_BASE_ADDR defined in boot.h
    li      sp, STACK_BASE_ADDR # Set up stack base.
bfc00510:	3c1dbfc0 	lui	sp,0xbfc0
bfc00514:	37bd0900 	ori	sp,sp,0x900
C:\Users\Hust\Desktop\Peripheral_Interface_lab\MIPSfpga_ADT7420_C/mini_crt0.S:66

    # Make a stack frame; must be a multiple of 8-bytes
    addiu   sp, sp, -8
bfc00518:	27bdfff8 	addiu	sp,sp,-8
C:\Users\Hust\Desktop\Peripheral_Interface_lab\MIPSfpga_ADT7420_C/mini_crt0.S:69

    # Preserve return address over the call to main
    sw      ra, 0(sp)
bfc0051c:	afbf0000 	sw	ra,0(sp)
C:\Users\Hust\Desktop\Peripheral_Interface_lab\MIPSfpga_ADT7420_C/mini_crt0.S:71

    li      s1_all_ones, 0xffffffff
bfc00520:	2411ffff 	li	s1,-1

bfc00524 <zero_bss>:
C:\Users\Hust\Desktop\Peripheral_Interface_lab\MIPSfpga_ADT7420_C/mini_crt0.S:74

zero_bss:
    la      t1_temp_addr, _fbss
bfc00524:	3c098000 	lui	t1,0x8000
bfc00528:	25293330 	addiu	t1,t1,13104
C:\Users\Hust\Desktop\Peripheral_Interface_lab\MIPSfpga_ADT7420_C/mini_crt0.S:75
    ins     t1_temp_addr, s1_all_ones, 29, 1
bfc0052c:	7e29ef44 	ins	t1,s1,0x1d,0x1
C:\Users\Hust\Desktop\Peripheral_Interface_lab\MIPSfpga_ADT7420_C/mini_crt0.S:76
    la      t3_temp_mark, _end
bfc00530:	3c0b8000 	lui	t3,0x8000
bfc00534:	256b339c 	addiu	t3,t3,13212
C:\Users\Hust\Desktop\Peripheral_Interface_lab\MIPSfpga_ADT7420_C/mini_crt0.S:77
    ins     t3_temp_mark, s1_all_ones, 29, 1
bfc00538:	7e2bef44 	ins	t3,s1,0x1d,0x1
C:\Users\Hust\Desktop\Peripheral_Interface_lab\MIPSfpga_ADT7420_C/mini_crt0.S:78
    beq     t1_temp_addr, t3_temp_mark, invoke_main
bfc0053c:	112b0005 	beq	t1,t3,bfc00554 <invoke_main>
C:\Users\Hust\Desktop\Peripheral_Interface_lab\MIPSfpga_ADT7420_C/mini_crt0.S:79
    nop
bfc00540:	00000000 	nop

bfc00544 <next_bss_word>:
C:\Users\Hust\Desktop\Peripheral_Interface_lab\MIPSfpga_ADT7420_C/mini_crt0.S:81
next_bss_word:
    sw      zero, 0(t1_temp_addr)
bfc00544:	ad200000 	sw	zero,0(t1)
C:\Users\Hust\Desktop\Peripheral_Interface_lab\MIPSfpga_ADT7420_C/mini_crt0.S:82
    addiu   t1_temp_addr, 4
bfc00548:	25290004 	addiu	t1,t1,4
C:\Users\Hust\Desktop\Peripheral_Interface_lab\MIPSfpga_ADT7420_C/mini_crt0.S:83
    bne     t1_temp_addr, t3_temp_mark, next_bss_word
bfc0054c:	152bfffd 	bne	t1,t3,bfc00544 <next_bss_word>
C:\Users\Hust\Desktop\Peripheral_Interface_lab\MIPSfpga_ADT7420_C/mini_crt0.S:84
    nop
bfc00550:	00000000 	nop

bfc00554 <invoke_main>:
C:\Users\Hust\Desktop\Peripheral_Interface_lab\MIPSfpga_ADT7420_C/mini_crt0.S:90

	
invoke_main:
	# Create interrupt control
	#
	lui		v0, 0xbfc0
bfc00554:	3c02bfc0 	lui	v0,0xbfc0
C:\Users\Hust\Desktop\Peripheral_Interface_lab\MIPSfpga_ADT7420_C/mini_crt0.S:91
	mtc0	v0, C0_EBASE		# set the interrupt base address at 0xbfc0_0000
bfc00558:	40827801 	mtc0	v0,c0_ebase
C:\Users\Hust\Desktop\Peripheral_Interface_lab\MIPSfpga_ADT7420_C/mini_crt0.S:92
	ehb
bfc0055c:	000000c0 	ehb
C:\Users\Hust\Desktop\Peripheral_Interface_lab\MIPSfpga_ADT7420_C/mini_crt0.S:94
	
	mfc0	v0, C0_CAUSE
bfc00560:	40026800 	mfc0	v0,c0_cause
C:\Users\Hust\Desktop\Peripheral_Interface_lab\MIPSfpga_ADT7420_C/mini_crt0.S:95
	la		v1, 0xff7fffff
bfc00564:	3c03ff7f 	lui	v1,0xff7f
bfc00568:	3463ffff 	ori	v1,v1,0xffff
C:\Users\Hust\Desktop\Peripheral_Interface_lab\MIPSfpga_ADT7420_C/mini_crt0.S:96
	and		v0, v0, v1
bfc0056c:	00431024 	and	v0,v0,v1
C:\Users\Hust\Desktop\Peripheral_Interface_lab\MIPSfpga_ADT7420_C/mini_crt0.S:97
	mtc0	v0, C0_CAUSE		# CauseIV = 0, interrupt offset at 0x180
bfc00570:	40826800 	mtc0	v0,c0_cause
C:\Users\Hust\Desktop\Peripheral_Interface_lab\MIPSfpga_ADT7420_C/mini_crt0.S:98
	ehb
bfc00574:	000000c0 	ehb
C:\Users\Hust\Desktop\Peripheral_Interface_lab\MIPSfpga_ADT7420_C/mini_crt0.S:100
	
	mfc0	v0, C0_STATUS
bfc00578:	40026000 	mfc0	v0,c0_status
C:\Users\Hust\Desktop\Peripheral_Interface_lab\MIPSfpga_ADT7420_C/mini_crt0.S:103
	#la		v1, 0xffbffff9
	#and		v0, v0, v1			# StatusBEV = 0, StatusEXL = 0, StatusERL = 0
	la		v1, 0x1
bfc0057c:	24030001 	li	v1,1
C:\Users\Hust\Desktop\Peripheral_Interface_lab\MIPSfpga_ADT7420_C/mini_crt0.S:104
	or		v0, v0, v1			# StatusIE = 1
bfc00580:	00431025 	or	v0,v0,v1
C:\Users\Hust\Desktop\Peripheral_Interface_lab\MIPSfpga_ADT7420_C/mini_crt0.S:105
	mtc0	v0, C0_STATUS		# set the Status register to enable interrupt
bfc00584:	40826000 	mtc0	v0,c0_status
C:\Users\Hust\Desktop\Peripheral_Interface_lab\MIPSfpga_ADT7420_C/mini_crt0.S:106
	ehb							
bfc00588:	000000c0 	ehb
C:\Users\Hust\Desktop\Peripheral_Interface_lab\MIPSfpga_ADT7420_C/mini_crt0.S:108
	
	mfc0	v0,C0_STATUS		# M_StatusEXL = 0
bfc0058c:	40026000 	mfc0	v0,c0_status
C:\Users\Hust\Desktop\Peripheral_Interface_lab\MIPSfpga_ADT7420_C/mini_crt0.S:109
	lui		v1,0x0
bfc00590:	3c030000 	lui	v1,0x0
C:\Users\Hust\Desktop\Peripheral_Interface_lab\MIPSfpga_ADT7420_C/mini_crt0.S:110
	addiu	v1,v1,-3
bfc00594:	2463fffd 	addiu	v1,v1,-3
C:\Users\Hust\Desktop\Peripheral_Interface_lab\MIPSfpga_ADT7420_C/mini_crt0.S:111
	and		v0,v0,v1
bfc00598:	00431024 	and	v0,v0,v1
C:\Users\Hust\Desktop\Peripheral_Interface_lab\MIPSfpga_ADT7420_C/mini_crt0.S:112
	mtc0	v0,C0_STATUS
bfc0059c:	40826000 	mtc0	v0,c0_status
C:\Users\Hust\Desktop\Peripheral_Interface_lab\MIPSfpga_ADT7420_C/mini_crt0.S:113
	ehb							
bfc005a0:	000000c0 	ehb
C:\Users\Hust\Desktop\Peripheral_Interface_lab\MIPSfpga_ADT7420_C/mini_crt0.S:116
	

    la      t0, main
bfc005a4:	3c088000 	lui	t0,0x8000
bfc005a8:	25082708 	addiu	t0,t0,9992
C:\Users\Hust\Desktop\Peripheral_Interface_lab\MIPSfpga_ADT7420_C/mini_crt0.S:118
    # Create space for the o32 argument stack
    addiu   sp, sp, -16
bfc005ac:	27bdfff0 	addiu	sp,sp,-16
C:\Users\Hust\Desktop\Peripheral_Interface_lab\MIPSfpga_ADT7420_C/mini_crt0.S:120
    # Call main
    jalr    t0
bfc005b0:	0100f809 	jalr	t0
C:\Users\Hust\Desktop\Peripheral_Interface_lab\MIPSfpga_ADT7420_C/mini_crt0.S:121
    nop
bfc005b4:	00000000 	nop
C:\Users\Hust\Desktop\Peripheral_Interface_lab\MIPSfpga_ADT7420_C/mini_crt0.S:123

    lw      ra, 0(sp)
bfc005b8:	8fbf0000 	lw	ra,0(sp)
C:\Users\Hust\Desktop\Peripheral_Interface_lab\MIPSfpga_ADT7420_C/mini_crt0.S:124
    addiu   sp, sp, 8
bfc005bc:	27bd0008 	addiu	sp,sp,8
C:\Users\Hust\Desktop\Peripheral_Interface_lab\MIPSfpga_ADT7420_C/mini_crt0.S:125
    jr      ra
bfc005c0:	03e00008 	jr	ra
C:\Users\Hust\Desktop\Peripheral_Interface_lab\MIPSfpga_ADT7420_C/mini_crt0.S:126
    nop
bfc005c4:	00000000 	nop

bfc005c8 <__exception_entry>:
C:\Users\Hust\Desktop\Peripheral_Interface_lab\MIPSfpga_ADT7420_C/exception_entry.S:55

/**************************************************************************************
**************************************************************************************/
LEAF(__exception_entry)

	move	k1,sp
bfc005c8:	03a0d821 	move	k1,sp
C:\Users\Hust\Desktop\Peripheral_Interface_lab\MIPSfpga_ADT7420_C/exception_entry.S:56
	addiu	sp, sp, -176
bfc005cc:	27bdff50 	addiu	sp,sp,-176
C:\Users\Hust\Desktop\Peripheral_Interface_lab\MIPSfpga_ADT7420_C/exception_entry.S:58
	#sw	at, 16(sp)
	sw	v0, 20(sp)
bfc005d0:	afa20014 	sw	v0,20(sp)
C:\Users\Hust\Desktop\Peripheral_Interface_lab\MIPSfpga_ADT7420_C/exception_entry.S:59
	sw	v1, 24(sp)
bfc005d4:	afa30018 	sw	v1,24(sp)
C:\Users\Hust\Desktop\Peripheral_Interface_lab\MIPSfpga_ADT7420_C/exception_entry.S:60
	sw	a0, 28(sp)
bfc005d8:	afa4001c 	sw	a0,28(sp)
C:\Users\Hust\Desktop\Peripheral_Interface_lab\MIPSfpga_ADT7420_C/exception_entry.S:61
	sw	a1, 32(sp)
bfc005dc:	afa50020 	sw	a1,32(sp)
C:\Users\Hust\Desktop\Peripheral_Interface_lab\MIPSfpga_ADT7420_C/exception_entry.S:62
	sw	a2, 36(sp)
bfc005e0:	afa60024 	sw	a2,36(sp)
C:\Users\Hust\Desktop\Peripheral_Interface_lab\MIPSfpga_ADT7420_C/exception_entry.S:63
	sw	a3, 40(sp)
bfc005e4:	afa70028 	sw	a3,40(sp)
C:\Users\Hust\Desktop\Peripheral_Interface_lab\MIPSfpga_ADT7420_C/exception_entry.S:64
	sw	t0, 44(sp)
bfc005e8:	afa8002c 	sw	t0,44(sp)
C:\Users\Hust\Desktop\Peripheral_Interface_lab\MIPSfpga_ADT7420_C/exception_entry.S:65
	sw	t1, 48(sp)
bfc005ec:	afa90030 	sw	t1,48(sp)
C:\Users\Hust\Desktop\Peripheral_Interface_lab\MIPSfpga_ADT7420_C/exception_entry.S:66
	sw	t2, 52(sp)
bfc005f0:	afaa0034 	sw	t2,52(sp)
C:\Users\Hust\Desktop\Peripheral_Interface_lab\MIPSfpga_ADT7420_C/exception_entry.S:67
	sw	t3, 56(sp)
bfc005f4:	afab0038 	sw	t3,56(sp)
C:\Users\Hust\Desktop\Peripheral_Interface_lab\MIPSfpga_ADT7420_C/exception_entry.S:68
	sw	t4, 60(sp)
bfc005f8:	afac003c 	sw	t4,60(sp)
C:\Users\Hust\Desktop\Peripheral_Interface_lab\MIPSfpga_ADT7420_C/exception_entry.S:69
	sw	t5, 64(sp)
bfc005fc:	afad0040 	sw	t5,64(sp)
C:\Users\Hust\Desktop\Peripheral_Interface_lab\MIPSfpga_ADT7420_C/exception_entry.S:70
	sw	t6, 68(sp)
bfc00600:	afae0044 	sw	t6,68(sp)
C:\Users\Hust\Desktop\Peripheral_Interface_lab\MIPSfpga_ADT7420_C/exception_entry.S:71
	sw	t7, 72(sp)
bfc00604:	afaf0048 	sw	t7,72(sp)
C:\Users\Hust\Desktop\Peripheral_Interface_lab\MIPSfpga_ADT7420_C/exception_entry.S:72
	sw	s0, 76(sp)
bfc00608:	afb0004c 	sw	s0,76(sp)
C:\Users\Hust\Desktop\Peripheral_Interface_lab\MIPSfpga_ADT7420_C/exception_entry.S:73
	sw	s1, 80(sp)
bfc0060c:	afb10050 	sw	s1,80(sp)
C:\Users\Hust\Desktop\Peripheral_Interface_lab\MIPSfpga_ADT7420_C/exception_entry.S:74
	sw	s2, 84(sp)
bfc00610:	afb20054 	sw	s2,84(sp)
C:\Users\Hust\Desktop\Peripheral_Interface_lab\MIPSfpga_ADT7420_C/exception_entry.S:75
	sw	s3, 88(sp)
bfc00614:	afb30058 	sw	s3,88(sp)
C:\Users\Hust\Desktop\Peripheral_Interface_lab\MIPSfpga_ADT7420_C/exception_entry.S:76
	sw	s4, 92(sp)
bfc00618:	afb4005c 	sw	s4,92(sp)
C:\Users\Hust\Desktop\Peripheral_Interface_lab\MIPSfpga_ADT7420_C/exception_entry.S:77
	sw	s5, 96(sp)
bfc0061c:	afb50060 	sw	s5,96(sp)
C:\Users\Hust\Desktop\Peripheral_Interface_lab\MIPSfpga_ADT7420_C/exception_entry.S:78
	sw	s6, 100(sp)
bfc00620:	afb60064 	sw	s6,100(sp)
C:\Users\Hust\Desktop\Peripheral_Interface_lab\MIPSfpga_ADT7420_C/exception_entry.S:79
	sw	s7, 104(sp)
bfc00624:	afb70068 	sw	s7,104(sp)
C:\Users\Hust\Desktop\Peripheral_Interface_lab\MIPSfpga_ADT7420_C/exception_entry.S:80
	sw	t8, 108(sp)
bfc00628:	afb8006c 	sw	t8,108(sp)
C:\Users\Hust\Desktop\Peripheral_Interface_lab\MIPSfpga_ADT7420_C/exception_entry.S:81
	sw	t9, 112(sp)
bfc0062c:	afb90070 	sw	t9,112(sp)
C:\Users\Hust\Desktop\Peripheral_Interface_lab\MIPSfpga_ADT7420_C/exception_entry.S:82
	sw	k0, 116(sp)
bfc00630:	afba0074 	sw	k0,116(sp)
C:\Users\Hust\Desktop\Peripheral_Interface_lab\MIPSfpga_ADT7420_C/exception_entry.S:83
	sw	gp, 124(sp)
bfc00634:	afbc007c 	sw	gp,124(sp)
C:\Users\Hust\Desktop\Peripheral_Interface_lab\MIPSfpga_ADT7420_C/exception_entry.S:84
	sw	k1, 128(sp)
bfc00638:	afbb0080 	sw	k1,128(sp)
C:\Users\Hust\Desktop\Peripheral_Interface_lab\MIPSfpga_ADT7420_C/exception_entry.S:85
	sw	s8, 132(sp)
bfc0063c:	afbe0084 	sw	s8,132(sp)
C:\Users\Hust\Desktop\Peripheral_Interface_lab\MIPSfpga_ADT7420_C/exception_entry.S:86
	sw	ra, 136(sp)
bfc00640:	afbf0088 	sw	ra,136(sp)
C:\Users\Hust\Desktop\Peripheral_Interface_lab\MIPSfpga_ADT7420_C/exception_entry.S:87
	sw	zero,156(sp)
bfc00644:	afa0009c 	sw	zero,156(sp)
C:\Users\Hust\Desktop\Peripheral_Interface_lab\MIPSfpga_ADT7420_C/exception_entry.S:88
	mfhi	t1
bfc00648:	00004810 	mfhi	t1
C:\Users\Hust\Desktop\Peripheral_Interface_lab\MIPSfpga_ADT7420_C/exception_entry.S:89
	mflo	t2
bfc0064c:	00005012 	mflo	t2
C:\Users\Hust\Desktop\Peripheral_Interface_lab\MIPSfpga_ADT7420_C/exception_entry.S:90
	sw	t1,148(sp)
bfc00650:	afa90094 	sw	t1,148(sp)
C:\Users\Hust\Desktop\Peripheral_Interface_lab\MIPSfpga_ADT7420_C/exception_entry.S:91
	sw	t2,152(sp)
bfc00654:	afaa0098 	sw	t2,152(sp)
C:\Users\Hust\Desktop\Peripheral_Interface_lab\MIPSfpga_ADT7420_C/exception_entry.S:92
	mfc0	ra,C0_EPC
bfc00658:	401f7000 	mfc0	ra,c0_epc
C:\Users\Hust\Desktop\Peripheral_Interface_lab\MIPSfpga_ADT7420_C/exception_entry.S:93
	mfc0	s3,C0_CAUSE
bfc0065c:	40136800 	mfc0	s3,c0_cause
C:\Users\Hust\Desktop\Peripheral_Interface_lab\MIPSfpga_ADT7420_C/exception_entry.S:94
	sw	ra,140(sp)
bfc00660:	afbf008c 	sw	ra,140(sp)
C:\Users\Hust\Desktop\Peripheral_Interface_lab\MIPSfpga_ADT7420_C/exception_entry.S:95
	mfc0	t1,C0_BADVADDR
bfc00664:	40094000 	mfc0	t1,c0_badvaddr
C:\Users\Hust\Desktop\Peripheral_Interface_lab\MIPSfpga_ADT7420_C/exception_entry.S:96
	sw	t1,144(sp)
bfc00668:	afa90090 	sw	t1,144(sp)
C:\Users\Hust\Desktop\Peripheral_Interface_lab\MIPSfpga_ADT7420_C/exception_entry.S:97
	sw	s3,164(sp)
bfc0066c:	afb300a4 	sw	s3,164(sp)
C:\Users\Hust\Desktop\Peripheral_Interface_lab\MIPSfpga_ADT7420_C/exception_entry.S:98
	move	t3,zero
bfc00670:	00005821 	move	t3,zero
C:\Users\Hust\Desktop\Peripheral_Interface_lab\MIPSfpga_ADT7420_C/exception_entry.S:99
	move	t4,zero
bfc00674:	00006021 	move	t4,zero
C:\Users\Hust\Desktop\Peripheral_Interface_lab\MIPSfpga_ADT7420_C/exception_entry.S:100
	mfc0	t1,C0_CONFIG3
bfc00678:	40098003 	mfc0	t1,c0_config3
C:\Users\Hust\Desktop\Peripheral_Interface_lab\MIPSfpga_ADT7420_C/exception_entry.S:101
	ext	t2,t1,0x1b,0x1
bfc0067c:	7d2a06c0 	ext	t2,t1,0x1b,0x1
C:\Users\Hust\Desktop\Peripheral_Interface_lab\MIPSfpga_ADT7420_C/exception_entry.S:102
	beqz	t2, 1f
bfc00680:	11400001 	beqz	t2,bfc00688 <__exception_entry+0xc0>
C:\Users\Hust\Desktop\Peripheral_Interface_lab\MIPSfpga_ADT7420_C/exception_entry.S:103
	mfc0	t3,$8,2
bfc00684:	400b4002 	mfc0	t3,$8,2
C:\Users\Hust\Desktop\Peripheral_Interface_lab\MIPSfpga_ADT7420_C/exception_entry.S:105
1:
	ext	t1,t1,0x1a,0x1
bfc00688:	7d290680 	ext	t1,t1,0x1a,0x1
C:\Users\Hust\Desktop\Peripheral_Interface_lab\MIPSfpga_ADT7420_C/exception_entry.S:106
	beqz	t1, 2f
bfc0068c:	11200001 	beqz	t1,bfc00694 <__exception_entry+0xcc>
C:\Users\Hust\Desktop\Peripheral_Interface_lab\MIPSfpga_ADT7420_C/exception_entry.S:107
	mfc0	t4,$8,1
bfc00690:	400c4001 	mfc0	t4,$8,1
C:\Users\Hust\Desktop\Peripheral_Interface_lab\MIPSfpga_ADT7420_C/exception_entry.S:109
2:
	sw	t3,172(sp)
bfc00694:	afab00ac 	sw	t3,172(sp)
C:\Users\Hust\Desktop\Peripheral_Interface_lab\MIPSfpga_ADT7420_C/exception_entry.S:110
	sw	t4,168(sp)
bfc00698:	afac00a8 	sw	t4,168(sp)
C:\Users\Hust\Desktop\Peripheral_Interface_lab\MIPSfpga_ADT7420_C/exception_entry.S:111
	move	a0,sp
bfc0069c:	03a02021 	move	a0,sp
C:\Users\Hust\Desktop\Peripheral_Interface_lab\MIPSfpga_ADT7420_C/exception_entry.S:112
	mfc0	s5,C0_STATUS
bfc006a0:	40156000 	mfc0	s5,c0_status
C:\Users\Hust\Desktop\Peripheral_Interface_lab\MIPSfpga_ADT7420_C/exception_entry.S:113
	lui	t1,0x0
bfc006a4:	3c090000 	lui	t1,0x0
C:\Users\Hust\Desktop\Peripheral_Interface_lab\MIPSfpga_ADT7420_C/exception_entry.S:114
	addiu	t1,t1,-3
bfc006a8:	2529fffd 	addiu	t1,t1,-3
C:\Users\Hust\Desktop\Peripheral_Interface_lab\MIPSfpga_ADT7420_C/exception_entry.S:115
	and	s5,s5,t1
bfc006ac:	02a9a824 	and	s5,s5,t1
C:\Users\Hust\Desktop\Peripheral_Interface_lab\MIPSfpga_ADT7420_C/exception_entry.S:116
	mtc0	s5,C0_STATUS
bfc006b0:	40956000 	mtc0	s5,c0_status
C:\Users\Hust\Desktop\Peripheral_Interface_lab\MIPSfpga_ADT7420_C/exception_entry.S:117
	sw	s5,160(sp)
bfc006b4:	afb500a0 	sw	s5,160(sp)
C:\Users\Hust\Desktop\Peripheral_Interface_lab\MIPSfpga_ADT7420_C/exception_entry.S:119
	
	la  t9, _mips_handle_irq
bfc006b8:	3c198000 	lui	t9,0x8000
bfc006bc:	27391104 	addiu	t9,t9,4356
C:\Users\Hust\Desktop\Peripheral_Interface_lab\MIPSfpga_ADT7420_C/exception_entry.S:120
	andi	a1,s3,0x7c
bfc006c0:	3265007c 	andi	a1,s3,0x7c
C:\Users\Hust\Desktop\Peripheral_Interface_lab\MIPSfpga_ADT7420_C/exception_entry.S:121
	addiu	a0,a0,16
bfc006c4:	24840010 	addiu	a0,a0,16
C:\Users\Hust\Desktop\Peripheral_Interface_lab\MIPSfpga_ADT7420_C/exception_entry.S:122
	srl	a1,a1,0x2
bfc006c8:	00052882 	srl	a1,a1,0x2
C:\Users\Hust\Desktop\Peripheral_Interface_lab\MIPSfpga_ADT7420_C/exception_entry.S:123
	jalr  t9
bfc006cc:	0320f809 	jalr	t9
C:\Users\Hust\Desktop\Peripheral_Interface_lab\MIPSfpga_ADT7420_C/exception_entry.S:124
	nop
bfc006d0:	00000000 	nop
C:\Users\Hust\Desktop\Peripheral_Interface_lab\MIPSfpga_ADT7420_C/exception_entry.S:128
	
	
		
	lw	t1,148(sp)
bfc006d4:	8fa90094 	lw	t1,148(sp)
C:\Users\Hust\Desktop\Peripheral_Interface_lab\MIPSfpga_ADT7420_C/exception_entry.S:129
	lw	t2,152(sp)
bfc006d8:	8faa0098 	lw	t2,152(sp)
C:\Users\Hust\Desktop\Peripheral_Interface_lab\MIPSfpga_ADT7420_C/exception_entry.S:130
	mthi	t1
bfc006dc:	01200011 	mthi	t1
C:\Users\Hust\Desktop\Peripheral_Interface_lab\MIPSfpga_ADT7420_C/exception_entry.S:131
	mtlo	t2
bfc006e0:	01400013 	mtlo	t2
C:\Users\Hust\Desktop\Peripheral_Interface_lab\MIPSfpga_ADT7420_C/exception_entry.S:132
	lw	s5,160(sp)
bfc006e4:	8fb500a0 	lw	s5,160(sp)
C:\Users\Hust\Desktop\Peripheral_Interface_lab\MIPSfpga_ADT7420_C/exception_entry.S:133
	mtc0	s5,C0_STATUS
bfc006e8:	40956000 	mtc0	s5,c0_status
C:\Users\Hust\Desktop\Peripheral_Interface_lab\MIPSfpga_ADT7420_C/exception_entry.S:134
	lw	s6,140(sp)
bfc006ec:	8fb6008c 	lw	s6,140(sp)
C:\Users\Hust\Desktop\Peripheral_Interface_lab\MIPSfpga_ADT7420_C/exception_entry.S:135
	mtc0	s6,C0_EPC
bfc006f0:	40967000 	mtc0	s6,c0_epc
C:\Users\Hust\Desktop\Peripheral_Interface_lab\MIPSfpga_ADT7420_C/exception_entry.S:137
	#lw	at,16(sp)
	lw	v0,20(sp)
bfc006f4:	8fa20014 	lw	v0,20(sp)
C:\Users\Hust\Desktop\Peripheral_Interface_lab\MIPSfpga_ADT7420_C/exception_entry.S:138
	lw	v1,24(sp)
bfc006f8:	8fa30018 	lw	v1,24(sp)
C:\Users\Hust\Desktop\Peripheral_Interface_lab\MIPSfpga_ADT7420_C/exception_entry.S:139
	lw	a0,28(sp)
bfc006fc:	8fa4001c 	lw	a0,28(sp)
C:\Users\Hust\Desktop\Peripheral_Interface_lab\MIPSfpga_ADT7420_C/exception_entry.S:140
	lw	a1,32(sp)
bfc00700:	8fa50020 	lw	a1,32(sp)
C:\Users\Hust\Desktop\Peripheral_Interface_lab\MIPSfpga_ADT7420_C/exception_entry.S:141
	lw	a2,36(sp)
bfc00704:	8fa60024 	lw	a2,36(sp)
C:\Users\Hust\Desktop\Peripheral_Interface_lab\MIPSfpga_ADT7420_C/exception_entry.S:142
	lw	a3,40(sp)
bfc00708:	8fa70028 	lw	a3,40(sp)
C:\Users\Hust\Desktop\Peripheral_Interface_lab\MIPSfpga_ADT7420_C/exception_entry.S:143
	lw	t0,44(sp)
bfc0070c:	8fa8002c 	lw	t0,44(sp)
C:\Users\Hust\Desktop\Peripheral_Interface_lab\MIPSfpga_ADT7420_C/exception_entry.S:144
	lw	t1,48(sp)
bfc00710:	8fa90030 	lw	t1,48(sp)
C:\Users\Hust\Desktop\Peripheral_Interface_lab\MIPSfpga_ADT7420_C/exception_entry.S:145
	lw	t2,52(sp)
bfc00714:	8faa0034 	lw	t2,52(sp)
C:\Users\Hust\Desktop\Peripheral_Interface_lab\MIPSfpga_ADT7420_C/exception_entry.S:146
	lw	t3,56(sp)
bfc00718:	8fab0038 	lw	t3,56(sp)
C:\Users\Hust\Desktop\Peripheral_Interface_lab\MIPSfpga_ADT7420_C/exception_entry.S:147
	lw	t4,60(sp)
bfc0071c:	8fac003c 	lw	t4,60(sp)
C:\Users\Hust\Desktop\Peripheral_Interface_lab\MIPSfpga_ADT7420_C/exception_entry.S:148
	lw	t5,64(sp)
bfc00720:	8fad0040 	lw	t5,64(sp)
C:\Users\Hust\Desktop\Peripheral_Interface_lab\MIPSfpga_ADT7420_C/exception_entry.S:149
	lw	t6,68(sp)
bfc00724:	8fae0044 	lw	t6,68(sp)
C:\Users\Hust\Desktop\Peripheral_Interface_lab\MIPSfpga_ADT7420_C/exception_entry.S:150
	lw	t7,72(sp)
bfc00728:	8faf0048 	lw	t7,72(sp)
C:\Users\Hust\Desktop\Peripheral_Interface_lab\MIPSfpga_ADT7420_C/exception_entry.S:151
	lw	s0,76(sp)
bfc0072c:	8fb0004c 	lw	s0,76(sp)
C:\Users\Hust\Desktop\Peripheral_Interface_lab\MIPSfpga_ADT7420_C/exception_entry.S:152
	lw	s1,80(sp)
bfc00730:	8fb10050 	lw	s1,80(sp)
C:\Users\Hust\Desktop\Peripheral_Interface_lab\MIPSfpga_ADT7420_C/exception_entry.S:153
	lw	s2,84(sp)
bfc00734:	8fb20054 	lw	s2,84(sp)
C:\Users\Hust\Desktop\Peripheral_Interface_lab\MIPSfpga_ADT7420_C/exception_entry.S:154
	lw	s3,88(sp)
bfc00738:	8fb30058 	lw	s3,88(sp)
C:\Users\Hust\Desktop\Peripheral_Interface_lab\MIPSfpga_ADT7420_C/exception_entry.S:155
	lw	s4,92(sp)
bfc0073c:	8fb4005c 	lw	s4,92(sp)
C:\Users\Hust\Desktop\Peripheral_Interface_lab\MIPSfpga_ADT7420_C/exception_entry.S:156
	lw	s5,96(sp)
bfc00740:	8fb50060 	lw	s5,96(sp)
C:\Users\Hust\Desktop\Peripheral_Interface_lab\MIPSfpga_ADT7420_C/exception_entry.S:157
	lw	s6,100(sp)
bfc00744:	8fb60064 	lw	s6,100(sp)
C:\Users\Hust\Desktop\Peripheral_Interface_lab\MIPSfpga_ADT7420_C/exception_entry.S:158
	lw	s7,104(sp)
bfc00748:	8fb70068 	lw	s7,104(sp)
C:\Users\Hust\Desktop\Peripheral_Interface_lab\MIPSfpga_ADT7420_C/exception_entry.S:159
	lw	t8,108(sp)
bfc0074c:	8fb8006c 	lw	t8,108(sp)
C:\Users\Hust\Desktop\Peripheral_Interface_lab\MIPSfpga_ADT7420_C/exception_entry.S:160
	lw	t9,112(sp)
bfc00750:	8fb90070 	lw	t9,112(sp)
C:\Users\Hust\Desktop\Peripheral_Interface_lab\MIPSfpga_ADT7420_C/exception_entry.S:161
	lw	k0,116(sp)
bfc00754:	8fba0074 	lw	k0,116(sp)
C:\Users\Hust\Desktop\Peripheral_Interface_lab\MIPSfpga_ADT7420_C/exception_entry.S:162
	lw	k1,120(sp)
bfc00758:	8fbb0078 	lw	k1,120(sp)
C:\Users\Hust\Desktop\Peripheral_Interface_lab\MIPSfpga_ADT7420_C/exception_entry.S:163
	lw	gp,124(sp)
bfc0075c:	8fbc007c 	lw	gp,124(sp)
C:\Users\Hust\Desktop\Peripheral_Interface_lab\MIPSfpga_ADT7420_C/exception_entry.S:164
	lw	s8,132(sp)
bfc00760:	8fbe0084 	lw	s8,132(sp)
C:\Users\Hust\Desktop\Peripheral_Interface_lab\MIPSfpga_ADT7420_C/exception_entry.S:165
	lw	ra,136(sp)
bfc00764:	8fbf0088 	lw	ra,136(sp)
C:\Users\Hust\Desktop\Peripheral_Interface_lab\MIPSfpga_ADT7420_C/exception_entry.S:166
	lw	sp,128(sp)
bfc00768:	8fbd0080 	lw	sp,128(sp)
C:\Users\Hust\Desktop\Peripheral_Interface_lab\MIPSfpga_ADT7420_C/exception_entry.S:167
	eret
bfc0076c:	42000018 	eret
	...

Disassembly of section .text_ram:

80001000 <delay>:
delay():
C:\Users\Hust\Desktop\Peripheral_Interface_lab\MIPSfpga_ADT7420_C/main.c:129
	
	uart_print("Exiting ADT7420 test application!\n\r");
	return 0;
}

void delay() {
80001000:	27bdfff8 	addiu	sp,sp,-8
C:\Users\Hust\Desktop\Peripheral_Interface_lab\MIPSfpga_ADT7420_C/main.c:132
	volatile unsigned int j;

	for (j = 0; j < (10000); j++) ;	// delay 
80001004:	afa00000 	sw	zero,0(sp)
80001008:	8fa20000 	lw	v0,0(sp)
8000100c:	2c422710 	sltiu	v0,v0,10000
80001010:	10400008 	beqz	v0,80001034 <delay+0x34>
80001014:	00000000 	nop
C:\Users\Hust\Desktop\Peripheral_Interface_lab\MIPSfpga_ADT7420_C/main.c:132 (discriminator 3)
80001018:	8fa20000 	lw	v0,0(sp)
8000101c:	24420001 	addiu	v0,v0,1
80001020:	afa20000 	sw	v0,0(sp)
80001024:	8fa20000 	lw	v0,0(sp)
80001028:	2c422710 	sltiu	v0,v0,10000
8000102c:	1440fffa 	bnez	v0,80001018 <delay+0x18>
80001030:	00000000 	nop
C:\Users\Hust\Desktop\Peripheral_Interface_lab\MIPSfpga_ADT7420_C/main.c:133
}
80001034:	03e00008 	jr	ra
80001038:	27bd0008 	addiu	sp,sp,8

8000103c <uart_outbyte>:
uart_outbyte():
C:\Users\Hust\Desktop\Peripheral_Interface_lab\MIPSfpga_ADT7420_C/main.c:135

void uart_outbyte(char c) {
8000103c:	27bdfff8 	addiu	sp,sp,-8
C:\Users\Hust\Desktop\Peripheral_Interface_lab\MIPSfpga_ADT7420_C/main.c:136
	*WRITE_IO(UART_BASE + thr) = (unsigned int) c;
80001040:	3c02b040 	lui	v0,0xb040
C:\Users\Hust\Desktop\Peripheral_Interface_lab\MIPSfpga_ADT7420_C/main.c:135
	volatile unsigned int j;

	for (j = 0; j < (10000); j++) ;	// delay 
}

void uart_outbyte(char c) {
80001044:	308400ff 	andi	a0,a0,0xff
C:\Users\Hust\Desktop\Peripheral_Interface_lab\MIPSfpga_ADT7420_C/main.c:136
	*WRITE_IO(UART_BASE + thr) = (unsigned int) c;
80001048:	ac441000 	sw	a0,4096(v0)
delay():
C:\Users\Hust\Desktop\Peripheral_Interface_lab\MIPSfpga_ADT7420_C/main.c:132
}

void delay() {
	volatile unsigned int j;

	for (j = 0; j < (10000); j++) ;	// delay 
8000104c:	afa00000 	sw	zero,0(sp)
80001050:	8fa20000 	lw	v0,0(sp)
80001054:	2c422710 	sltiu	v0,v0,10000
80001058:	10400008 	beqz	v0,8000107c <uart_outbyte+0x40>
8000105c:	00000000 	nop
80001060:	8fa20000 	lw	v0,0(sp)
80001064:	24420001 	addiu	v0,v0,1
80001068:	afa20000 	sw	v0,0(sp)
8000106c:	8fa20000 	lw	v0,0(sp)
80001070:	2c422710 	sltiu	v0,v0,10000
80001074:	1440fffa 	bnez	v0,80001060 <uart_outbyte+0x24>
80001078:	00000000 	nop
uart_outbyte():
C:\Users\Hust\Desktop\Peripheral_Interface_lab\MIPSfpga_ADT7420_C/main.c:138
}

void uart_outbyte(char c) {
	*WRITE_IO(UART_BASE + thr) = (unsigned int) c;
	delay( );
}
8000107c:	03e00008 	jr	ra
80001080:	27bd0008 	addiu	sp,sp,8

80001084 <uart_inbyte>:
uart_inbyte():
C:\Users\Hust\Desktop\Peripheral_Interface_lab\MIPSfpga_ADT7420_C/main.c:143

char uart_inbyte(void) {
	unsigned int RecievedByte;
	
	while(!((*READ_IO(UART_BASE + lsr) & 0x00000001)==0x00000001));
80001084:	3c03b040 	lui	v1,0xb040
C:\Users\Hust\Desktop\Peripheral_Interface_lab\MIPSfpga_ADT7420_C/main.c:143 (discriminator 1)
80001088:	8c621014 	lw	v0,4116(v1)
8000108c:	30420001 	andi	v0,v0,0x1
80001090:	1040fffd 	beqz	v0,80001088 <uart_inbyte+0x4>
80001094:	3c02b040 	lui	v0,0xb040
C:\Users\Hust\Desktop\Peripheral_Interface_lab\MIPSfpga_ADT7420_C/main.c:145

	RecievedByte = *READ_IO(UART_BASE + rbr);
80001098:	8c421000 	lw	v0,4096(v0)
C:\Users\Hust\Desktop\Peripheral_Interface_lab\MIPSfpga_ADT7420_C/main.c:148

	return (char)RecievedByte;
}
8000109c:	03e00008 	jr	ra
800010a0:	304200ff 	andi	v0,v0,0xff

800010a4 <uart_print>:
uart_print():
C:\Users\Hust\Desktop\Peripheral_Interface_lab\MIPSfpga_ADT7420_C/main.c:152

void uart_print(const char *ptr)
{
	while (*ptr) {
800010a4:	90820000 	lbu	v0,0(a0)
800010a8:	10400014 	beqz	v0,800010fc <uart_print+0x58>
800010ac:	3c03b040 	lui	v1,0xb040
C:\Users\Hust\Desktop\Peripheral_Interface_lab\MIPSfpga_ADT7420_C/main.c:151

	return (char)RecievedByte;
}

void uart_print(const char *ptr)
{
800010b0:	27bdfff8 	addiu	sp,sp,-8
uart_outbyte():
C:\Users\Hust\Desktop\Peripheral_Interface_lab\MIPSfpga_ADT7420_C/main.c:136

	for (j = 0; j < (10000); j++) ;	// delay 
}

void uart_outbyte(char c) {
	*WRITE_IO(UART_BASE + thr) = (unsigned int) c;
800010b4:	ac621000 	sw	v0,4096(v1)
delay():
C:\Users\Hust\Desktop\Peripheral_Interface_lab\MIPSfpga_ADT7420_C/main.c:132
}

void delay() {
	volatile unsigned int j;

	for (j = 0; j < (10000); j++) ;	// delay 
800010b8:	afa00000 	sw	zero,0(sp)
800010bc:	8fa20000 	lw	v0,0(sp)
800010c0:	2c422710 	sltiu	v0,v0,10000
800010c4:	50400009 	beqzl	v0,800010ec <uart_print+0x48>
800010c8:	24840001 	addiu	a0,a0,1
800010cc:	8fa20000 	lw	v0,0(sp)
800010d0:	24420001 	addiu	v0,v0,1
800010d4:	afa20000 	sw	v0,0(sp)
800010d8:	8fa20000 	lw	v0,0(sp)
800010dc:	2c422710 	sltiu	v0,v0,10000
800010e0:	1440fffa 	bnez	v0,800010cc <uart_print+0x28>
800010e4:	00000000 	nop
uart_print():
C:\Users\Hust\Desktop\Peripheral_Interface_lab\MIPSfpga_ADT7420_C/main.c:154

void uart_print(const char *ptr)
{
	while (*ptr) {
		uart_outbyte (*ptr);
		ptr++;
800010e8:	24840001 	addiu	a0,a0,1
C:\Users\Hust\Desktop\Peripheral_Interface_lab\MIPSfpga_ADT7420_C/main.c:152
	return (char)RecievedByte;
}

void uart_print(const char *ptr)
{
	while (*ptr) {
800010ec:	90820000 	lbu	v0,0(a0)
800010f0:	1440fff0 	bnez	v0,800010b4 <uart_print+0x10>
800010f4:	00000000 	nop
C:\Users\Hust\Desktop\Peripheral_Interface_lab\MIPSfpga_ADT7420_C/main.c:156
		uart_outbyte (*ptr);
		ptr++;
	}
}
800010f8:	27bd0008 	addiu	sp,sp,8
800010fc:	03e00008 	jr	ra
80001100:	00000000 	nop

80001104 <_mips_handle_irq>:
_mips_handle_irq():
C:\Users\Hust\Desktop\Peripheral_Interface_lab\MIPSfpga_ADT7420_C/main.c:160

void _mips_handle_irq(void* ctx, int reason)
{	
	*WRITE_IO(IO_LEDR) = 0xF00F;  // Display 0xFFFF on LEDs to indicate receive data from uart
80001104:	3403f00f 	li	v1,0xf00f
80001108:	3c02b060 	lui	v0,0xb060
8000110c:	ac430000 	sw	v1,0(v0)
C:\Users\Hust\Desktop\Peripheral_Interface_lab\MIPSfpga_ADT7420_C/main.c:162
	
	if((*READ_IO(UART_BASE + lsr) & 0x00000001)==0x00000001)
80001110:	3c03b040 	lui	v1,0xb040
80001114:	8c621014 	lw	v0,4116(v1)
80001118:	30420001 	andi	v0,v0,0x1
8000111c:	10400004 	beqz	v0,80001130 <_mips_handle_irq+0x2c>
80001120:	3c02b060 	lui	v0,0xb060
C:\Users\Hust\Desktop\Peripheral_Interface_lab\MIPSfpga_ADT7420_C/main.c:163
		rxData = *READ_IO(UART_BASE + rbr);
80001124:	8c621000 	lw	v0,4096(v1)
80001128:	af828008 	sw	v0,-32760(gp)
C:\Users\Hust\Desktop\Peripheral_Interface_lab\MIPSfpga_ADT7420_C/main.c:165
	
	*WRITE_IO(IO_LEDR) = 0x0;
8000112c:	3c02b060 	lui	v0,0xb060
80001130:	ac400000 	sw	zero,0(v0)
80001134:	03e00008 	jr	ra
80001138:	00000000 	nop

8000113c <reverse>:
reverse():
C:\Users\Hust\Desktop\Peripheral_Interface_lab\MIPSfpga_ADT7420_C/ADT7420.c:70
char *reverse(char *s)  
{  
    char temp;  
    char *p = s;    //ps  
    char *q = s;    //qs  
    while(*q)  
8000113c:	90860000 	lbu	a2,0(a0)
C:\Users\Hust\Desktop\Peripheral_Interface_lab\MIPSfpga_ADT7420_C/ADT7420.c:66
int  TUpper = 0x1FFF;


//  
char *reverse(char *s)  
{  
80001140:	00801021 	move	v0,a0
C:\Users\Hust\Desktop\Peripheral_Interface_lab\MIPSfpga_ADT7420_C/ADT7420.c:70
    char temp;  
    char *p = s;    //ps  
    char *q = s;    //qs  
    while(*q)  
80001144:	10c00005 	beqz	a2,8000115c <reverse+0x20>
80001148:	00801821 	move	v1,a0
C:\Users\Hust\Desktop\Peripheral_Interface_lab\MIPSfpga_ADT7420_C/ADT7420.c:71
        ++q;  
8000114c:	24630001 	addiu	v1,v1,1
C:\Users\Hust\Desktop\Peripheral_Interface_lab\MIPSfpga_ADT7420_C/ADT7420.c:70
char *reverse(char *s)  
{  
    char temp;  
    char *p = s;    //ps  
    char *q = s;    //qs  
    while(*q)  
80001150:	90650000 	lbu	a1,0(v1)
80001154:	54a0fffe 	bnezl	a1,80001150 <reverse+0x14>
80001158:	24630001 	addiu	v1,v1,1
C:\Users\Hust\Desktop\Peripheral_Interface_lab\MIPSfpga_ADT7420_C/ADT7420.c:72
        ++q;  
    q--;  
8000115c:	2463ffff 	addiu	v1,v1,-1
C:\Users\Hust\Desktop\Peripheral_Interface_lab\MIPSfpga_ADT7420_C/ADT7420.c:75
  
    //pq  
    while(q > p)  
80001160:	0043202b 	sltu	a0,v0,v1
80001164:	1080000b 	beqz	a0,80001194 <reverse+0x58>
80001168:	00402821 	move	a1,v0
C:\Users\Hust\Desktop\Peripheral_Interface_lab\MIPSfpga_ADT7420_C/ADT7420.c:78
    {  
        temp = *p;  
        *p++ = *q;  
8000116c:	10000003 	b	8000117c <reverse+0x40>
80001170:	90680000 	lbu	t0,0(v1)
80001174:	90a60000 	lbu	a2,0(a1)
80001178:	90680000 	lbu	t0,0(v1)
8000117c:	24a50001 	addiu	a1,a1,1
C:\Users\Hust\Desktop\Peripheral_Interface_lab\MIPSfpga_ADT7420_C/ADT7420.c:79
        *q-- = temp;  
80001180:	2463ffff 	addiu	v1,v1,-1
C:\Users\Hust\Desktop\Peripheral_Interface_lab\MIPSfpga_ADT7420_C/ADT7420.c:75
    while(*q)  
        ++q;  
    q--;  
  
    //pq  
    while(q > p)  
80001184:	00a3382b 	sltu	a3,a1,v1
C:\Users\Hust\Desktop\Peripheral_Interface_lab\MIPSfpga_ADT7420_C/ADT7420.c:78
    {  
        temp = *p;  
        *p++ = *q;  
80001188:	a0a8ffff 	sb	t0,-1(a1)
C:\Users\Hust\Desktop\Peripheral_Interface_lab\MIPSfpga_ADT7420_C/ADT7420.c:75
    while(*q)  
        ++q;  
    q--;  
  
    //pq  
    while(q > p)  
8000118c:	14e0fff9 	bnez	a3,80001174 <reverse+0x38>
80001190:	a0660001 	sb	a2,1(v1)
C:\Users\Hust\Desktop\Peripheral_Interface_lab\MIPSfpga_ADT7420_C/ADT7420.c:82
        temp = *p;  
        *p++ = *q;  
        *q-- = temp;  
    }  
    return s;  
}  
80001194:	03e00008 	jr	ra
80001198:	00000000 	nop

8000119c <my_itoa>:
my_itoa():
C:\Users\Hust\Desktop\Peripheral_Interface_lab\MIPSfpga_ADT7420_C/ADT7420.c:89
/* 
 *  
 * char s[]  
 */  
char *my_itoa(int n)  
{  
8000119c:	000417c3 	sra	v0,a0,0x1f
800011a0:	00442826 	xor	a1,v0,a0
800011a4:	3c0b8000 	lui	t3,0x8000
C:\Users\Hust\Desktop\Peripheral_Interface_lab\MIPSfpga_ADT7420_C/ADT7420.c:98
    {  
        n = -n;  
    }  
    do      //  
    {  
        s[i++] = n%10 + '0';  
800011a8:	3c0a6666 	lui	t2,0x6666
800011ac:	00a22823 	subu	a1,a1,v0
C:\Users\Hust\Desktop\Peripheral_Interface_lab\MIPSfpga_ADT7420_C/ADT7420.c:89
/* 
 *  
 * char s[]  
 */  
char *my_itoa(int n)  
{  
800011b0:	00003821 	move	a3,zero
800011b4:	25623338 	addiu	v0,t3,13112
C:\Users\Hust\Desktop\Peripheral_Interface_lab\MIPSfpga_ADT7420_C/ADT7420.c:98
    {  
        n = -n;  
    }  
    do      //  
    {  
        s[i++] = n%10 + '0';  
800011b8:	254a6667 	addiu	t2,t2,26215
C:\Users\Hust\Desktop\Peripheral_Interface_lab\MIPSfpga_ADT7420_C/ADT7420.c:98 (discriminator 1)
800011bc:	00aa0018 	mult	a1,t2
800011c0:	000537c3 	sra	a2,a1,0x1f
800011c4:	24e70001 	addiu	a3,a3,1
800011c8:	00474021 	addu	t0,v0,a3
800011cc:	00001810 	mfhi	v1
800011d0:	00031883 	sra	v1,v1,0x2
800011d4:	00661823 	subu	v1,v1,a2
800011d8:	00033040 	sll	a2,v1,0x1
800011dc:	000348c0 	sll	t1,v1,0x3
800011e0:	00c93021 	addu	a2,a2,t1
800011e4:	00a62823 	subu	a1,a1,a2
800011e8:	24a60030 	addiu	a2,a1,48
800011ec:	a106ffff 	sb	a2,-1(t0)
C:\Users\Hust\Desktop\Peripheral_Interface_lab\MIPSfpga_ADT7420_C/ADT7420.c:100 (discriminator 1)
        n = n/10;  
    }while(n > 0);  
800011f0:	1460fff2 	bnez	v1,800011bc <my_itoa+0x20>
800011f4:	00602821 	move	a1,v1
C:\Users\Hust\Desktop\Peripheral_Interface_lab\MIPSfpga_ADT7420_C/ADT7420.c:102
  
    if(isNegative < 0)   //  
800011f8:	0480001a 	bltz	a0,80001264 <my_itoa+0xc8>
800011fc:	2404002d 	li	a0,45
C:\Users\Hust\Desktop\Peripheral_Interface_lab\MIPSfpga_ADT7420_C/ADT7420.c:106
    {  
        s[i++] = '-';  
    }  
    s[i] = '\0';    //  
80001200:	00473821 	addu	a3,v0,a3
80001204:	a0e00000 	sb	zero,0(a3)
reverse():
C:\Users\Hust\Desktop\Peripheral_Interface_lab\MIPSfpga_ADT7420_C/ADT7420.c:70
char *reverse(char *s)  
{  
    char temp;  
    char *p = s;    //ps  
    char *q = s;    //qs  
    while(*q)  
80001208:	91653338 	lbu	a1,13112(t3)
8000120c:	10a00005 	beqz	a1,80001224 <my_itoa+0x88>
80001210:	00401821 	move	v1,v0
C:\Users\Hust\Desktop\Peripheral_Interface_lab\MIPSfpga_ADT7420_C/ADT7420.c:71
        ++q;  
80001214:	24630001 	addiu	v1,v1,1
C:\Users\Hust\Desktop\Peripheral_Interface_lab\MIPSfpga_ADT7420_C/ADT7420.c:70
char *reverse(char *s)  
{  
    char temp;  
    char *p = s;    //ps  
    char *q = s;    //qs  
    while(*q)  
80001218:	90640000 	lbu	a0,0(v1)
8000121c:	5480fffe 	bnezl	a0,80001218 <my_itoa+0x7c>
80001220:	24630001 	addiu	v1,v1,1
C:\Users\Hust\Desktop\Peripheral_Interface_lab\MIPSfpga_ADT7420_C/ADT7420.c:72
        ++q;  
    q--;  
80001224:	2463ffff 	addiu	v1,v1,-1
C:\Users\Hust\Desktop\Peripheral_Interface_lab\MIPSfpga_ADT7420_C/ADT7420.c:75
  
    //pq  
    while(q > p)  
80001228:	0043202b 	sltu	a0,v0,v1
8000122c:	1080000b 	beqz	a0,8000125c <my_itoa+0xc0>
80001230:	00402021 	move	a0,v0
my_itoa():
C:\Users\Hust\Desktop\Peripheral_Interface_lab\MIPSfpga_ADT7420_C/ADT7420.c:78
    {  
        temp = *p;  
        *p++ = *q;  
80001234:	10000003 	b	80001244 <my_itoa+0xa8>
80001238:	90670000 	lbu	a3,0(v1)
8000123c:	90850000 	lbu	a1,0(a0)
reverse():
80001240:	90670000 	lbu	a3,0(v1)
80001244:	24840001 	addiu	a0,a0,1
C:\Users\Hust\Desktop\Peripheral_Interface_lab\MIPSfpga_ADT7420_C/ADT7420.c:79
        *q-- = temp;  
80001248:	2463ffff 	addiu	v1,v1,-1
C:\Users\Hust\Desktop\Peripheral_Interface_lab\MIPSfpga_ADT7420_C/ADT7420.c:75
    while(*q)  
        ++q;  
    q--;  
  
    //pq  
    while(q > p)  
8000124c:	0083302b 	sltu	a2,a0,v1
C:\Users\Hust\Desktop\Peripheral_Interface_lab\MIPSfpga_ADT7420_C/ADT7420.c:78
    {  
        temp = *p;  
        *p++ = *q;  
80001250:	a087ffff 	sb	a3,-1(a0)
C:\Users\Hust\Desktop\Peripheral_Interface_lab\MIPSfpga_ADT7420_C/ADT7420.c:75
    while(*q)  
        ++q;  
    q--;  
  
    //pq  
    while(q > p)  
80001254:	14c0fff9 	bnez	a2,8000123c <my_itoa+0xa0>
80001258:	a0650001 	sb	a1,1(v1)
my_itoa():
C:\Users\Hust\Desktop\Peripheral_Interface_lab\MIPSfpga_ADT7420_C/ADT7420.c:109
        s[i++] = '-';  
    }  
    s[i] = '\0';    //  
	
    return reverse(s);    
}  
8000125c:	03e00008 	jr	ra
80001260:	00000000 	nop
C:\Users\Hust\Desktop\Peripheral_Interface_lab\MIPSfpga_ADT7420_C/ADT7420.c:104
        n = n/10;  
    }while(n > 0);  
  
    if(isNegative < 0)   //  
    {  
        s[i++] = '-';  
80001264:	24e70001 	addiu	a3,a3,1
80001268:	1000ffe5 	b	80001200 <my_itoa+0x64>
8000126c:	a1040000 	sb	a0,0(t0)

80001270 <SetAlertModeComparator>:
SetAlertModeComparator():
C:\Users\Hust\Desktop\Peripheral_Interface_lab\MIPSfpga_ADT7420_C/ADT7420.c:144
* @param None.
*
* @return None.
******************************************************************************/
void SetAlertModeComparator(void)
{
80001270:	27bdffd8 	addiu	sp,sp,-40
C:\Users\Hust\Desktop\Peripheral_Interface_lab\MIPSfpga_ADT7420_C/ADT7420.c:149
	unsigned char txBuffer[1] = {0x00};

	txBuffer[0] = 1 << INT_CT;

	I2C_Write(IIC_BASEADDR, ADT7420_IIC_ADDR, CONFIG_REG, 1, txBuffer);
80001274:	27a20018 	addiu	v0,sp,24
80001278:	3c04b0a0 	lui	a0,0xb0a0
8000127c:	afa20010 	sw	v0,16(sp)
80001280:	2405004b 	li	a1,75
C:\Users\Hust\Desktop\Peripheral_Interface_lab\MIPSfpga_ADT7420_C/ADT7420.c:147
******************************************************************************/
void SetAlertModeComparator(void)
{
	unsigned char txBuffer[1] = {0x00};

	txBuffer[0] = 1 << INT_CT;
80001284:	24020010 	li	v0,16
C:\Users\Hust\Desktop\Peripheral_Interface_lab\MIPSfpga_ADT7420_C/ADT7420.c:149

	I2C_Write(IIC_BASEADDR, ADT7420_IIC_ADDR, CONFIG_REG, 1, txBuffer);
80001288:	24060003 	li	a2,3
8000128c:	24070001 	li	a3,1
C:\Users\Hust\Desktop\Peripheral_Interface_lab\MIPSfpga_ADT7420_C/ADT7420.c:144
* @param None.
*
* @return None.
******************************************************************************/
void SetAlertModeComparator(void)
{
80001290:	afbf0024 	sw	ra,36(sp)
C:\Users\Hust\Desktop\Peripheral_Interface_lab\MIPSfpga_ADT7420_C/ADT7420.c:149
	unsigned char txBuffer[1] = {0x00};

	txBuffer[0] = 1 << INT_CT;

	I2C_Write(IIC_BASEADDR, ADT7420_IIC_ADDR, CONFIG_REG, 1, txBuffer);
80001294:	0c00099c 	jal	80002670 <I2C_Write>
80001298:	a3a20018 	sb	v0,24(sp)
C:\Users\Hust\Desktop\Peripheral_Interface_lab\MIPSfpga_ADT7420_C/ADT7420.c:150
}
8000129c:	8fbf0024 	lw	ra,36(sp)
800012a0:	03e00008 	jr	ra
800012a4:	27bd0028 	addiu	sp,sp,40

800012a8 <ADT7420_Init>:
ADT7420_Init():
C:\Users\Hust\Desktop\Peripheral_Interface_lab\MIPSfpga_ADT7420_C/ADT7420.c:120
* @param  None.
*
* @return None.
******************************************************************************/
void ADT7420_Init(void)
{
800012a8:	27bdffd8 	addiu	sp,sp,-40
C:\Users\Hust\Desktop\Peripheral_Interface_lab\MIPSfpga_ADT7420_C/ADT7420.c:123
	unsigned char txBuffer[1] = { 0x00 };
	
	if(I2C_Init(IIC_BASEADDR, ADT7420_IIC_ADDR))
800012ac:	3c04b0a0 	lui	a0,0xb0a0
800012b0:	2405004b 	li	a1,75
C:\Users\Hust\Desktop\Peripheral_Interface_lab\MIPSfpga_ADT7420_C/ADT7420.c:120
* @param  None.
*
* @return None.
******************************************************************************/
void ADT7420_Init(void)
{
800012b4:	afbf0024 	sw	ra,36(sp)
C:\Users\Hust\Desktop\Peripheral_Interface_lab\MIPSfpga_ADT7420_C/ADT7420.c:123
	unsigned char txBuffer[1] = { 0x00 };
	
	if(I2C_Init(IIC_BASEADDR, ADT7420_IIC_ADDR))
800012b8:	0c00095a 	jal	80002568 <I2C_Init>
800012bc:	a3a00018 	sb	zero,24(sp)
800012c0:	54400010 	bnezl	v0,80001304 <ADT7420_Init+0x5c>
800012c4:	3c048000 	lui	a0,0x8000
C:\Users\Hust\Desktop\Peripheral_Interface_lab\MIPSfpga_ADT7420_C/ADT7420.c:129
    {
        uart_print("AXI IIC initialized OK!\n\r");
    }
    else
    {
        uart_print("AXI IIC Error!\n\r");
800012c8:	3c048000 	lui	a0,0x8000
800012cc:	0c000429 	jal	800010a4 <uart_print>
800012d0:	24842c00 	addiu	a0,a0,11264
C:\Users\Hust\Desktop\Peripheral_Interface_lab\MIPSfpga_ADT7420_C/ADT7420.c:132
    }
	
	I2C_Write(IIC_BASEADDR, ADT7420_IIC_ADDR, SOFT_RST_REG, 1, txBuffer);
800012d4:	27a20018 	addiu	v0,sp,24
800012d8:	afa20010 	sw	v0,16(sp)
800012dc:	3c04b0a0 	lui	a0,0xb0a0
800012e0:	2405004b 	li	a1,75
800012e4:	2406002f 	li	a2,47
800012e8:	0c00099c 	jal	80002670 <I2C_Write>
800012ec:	24070001 	li	a3,1
C:\Users\Hust\Desktop\Peripheral_Interface_lab\MIPSfpga_ADT7420_C/ADT7420.c:134

	SetAlertModeComparator();
800012f0:	0c00049c 	jal	80001270 <SetAlertModeComparator>
800012f4:	00000000 	nop
C:\Users\Hust\Desktop\Peripheral_Interface_lab\MIPSfpga_ADT7420_C/ADT7420.c:135
}
800012f8:	8fbf0024 	lw	ra,36(sp)
800012fc:	03e00008 	jr	ra
80001300:	27bd0028 	addiu	sp,sp,40
C:\Users\Hust\Desktop\Peripheral_Interface_lab\MIPSfpga_ADT7420_C/ADT7420.c:125
{
	unsigned char txBuffer[1] = { 0x00 };
	
	if(I2C_Init(IIC_BASEADDR, ADT7420_IIC_ADDR))
    {
        uart_print("AXI IIC initialized OK!\n\r");
80001304:	0c000429 	jal	800010a4 <uart_print>
80001308:	24842be4 	addiu	a0,a0,11236
C:\Users\Hust\Desktop\Peripheral_Interface_lab\MIPSfpga_ADT7420_C/ADT7420.c:132
    else
    {
        uart_print("AXI IIC Error!\n\r");
    }
	
	I2C_Write(IIC_BASEADDR, ADT7420_IIC_ADDR, SOFT_RST_REG, 1, txBuffer);
8000130c:	27a20018 	addiu	v0,sp,24
80001310:	afa20010 	sw	v0,16(sp)
80001314:	3c04b0a0 	lui	a0,0xb0a0
80001318:	2405004b 	li	a1,75
8000131c:	2406002f 	li	a2,47
80001320:	0c00099c 	jal	80002670 <I2C_Write>
80001324:	24070001 	li	a3,1
C:\Users\Hust\Desktop\Peripheral_Interface_lab\MIPSfpga_ADT7420_C/ADT7420.c:134

	SetAlertModeComparator();
80001328:	0c00049c 	jal	80001270 <SetAlertModeComparator>
8000132c:	00000000 	nop
C:\Users\Hust\Desktop\Peripheral_Interface_lab\MIPSfpga_ADT7420_C/ADT7420.c:135
}
80001330:	8fbf0024 	lw	ra,36(sp)
80001334:	03e00008 	jr	ra
80001338:	27bd0028 	addiu	sp,sp,40

8000133c <ADT7420_ReadConfigReg>:
ADT7420_ReadConfigReg():
C:\Users\Hust\Desktop\Peripheral_Interface_lab\MIPSfpga_ADT7420_C/ADT7420.c:160
* @param None.
*
* @return rxBuffer[0] & 0x7F - all bits in the Configuration Register, except RESOLUTION bit
******************************************************************************/
char ADT7420_ReadConfigReg(void)
{
8000133c:	27bdffd8 	addiu	sp,sp,-40
C:\Users\Hust\Desktop\Peripheral_Interface_lab\MIPSfpga_ADT7420_C/ADT7420.c:163
	unsigned char rxBuffer[1] = {0x00};

	I2C_Read(IIC_BASEADDR, ADT7420_IIC_ADDR, CONFIG_REG, 1, rxBuffer);
80001340:	27a20018 	addiu	v0,sp,24
80001344:	3c04b0a0 	lui	a0,0xb0a0
80001348:	afa20010 	sw	v0,16(sp)
8000134c:	2405004b 	li	a1,75
80001350:	24060003 	li	a2,3
80001354:	24070001 	li	a3,1
C:\Users\Hust\Desktop\Peripheral_Interface_lab\MIPSfpga_ADT7420_C/ADT7420.c:160
* @param None.
*
* @return rxBuffer[0] & 0x7F - all bits in the Configuration Register, except RESOLUTION bit
******************************************************************************/
char ADT7420_ReadConfigReg(void)
{
80001358:	afbf0024 	sw	ra,36(sp)
C:\Users\Hust\Desktop\Peripheral_Interface_lab\MIPSfpga_ADT7420_C/ADT7420.c:163
	unsigned char rxBuffer[1] = {0x00};

	I2C_Read(IIC_BASEADDR, ADT7420_IIC_ADDR, CONFIG_REG, 1, rxBuffer);
8000135c:	0c000964 	jal	80002590 <I2C_Read>
80001360:	a3a00018 	sb	zero,24(sp)
C:\Users\Hust\Desktop\Peripheral_Interface_lab\MIPSfpga_ADT7420_C/ADT7420.c:165

	return(rxBuffer[0] & 0x7F);
80001364:	93a20018 	lbu	v0,24(sp)
C:\Users\Hust\Desktop\Peripheral_Interface_lab\MIPSfpga_ADT7420_C/ADT7420.c:166
}
80001368:	8fbf0024 	lw	ra,36(sp)
8000136c:	27bd0028 	addiu	sp,sp,40
80001370:	03e00008 	jr	ra
80001374:	3042007f 	andi	v0,v0,0x7f

80001378 <ADT7420_PrintID>:
ADT7420_PrintID():
C:\Users\Hust\Desktop\Peripheral_Interface_lab\MIPSfpga_ADT7420_C/ADT7420.c:176
* @param None.
*
* @return None.
******************************************************************************/
void ADT7420_PrintID(void)
{
80001378:	27bdffd8 	addiu	sp,sp,-40
C:\Users\Hust\Desktop\Peripheral_Interface_lab\MIPSfpga_ADT7420_C/ADT7420.c:179
	unsigned char rxBuffer[1] = {0x00};

	I2C_Read(IIC_BASEADDR, ADT7420_IIC_ADDR, ID_REG, 1, rxBuffer);
8000137c:	27a20018 	addiu	v0,sp,24
80001380:	2405004b 	li	a1,75
80001384:	2406000b 	li	a2,11
80001388:	24070001 	li	a3,1
8000138c:	3c04b0a0 	lui	a0,0xb0a0
80001390:	afa20010 	sw	v0,16(sp)
C:\Users\Hust\Desktop\Peripheral_Interface_lab\MIPSfpga_ADT7420_C/ADT7420.c:176
* @param None.
*
* @return None.
******************************************************************************/
void ADT7420_PrintID(void)
{
80001394:	afbf0024 	sw	ra,36(sp)
80001398:	afb00020 	sw	s0,32(sp)
C:\Users\Hust\Desktop\Peripheral_Interface_lab\MIPSfpga_ADT7420_C/ADT7420.c:179
	unsigned char rxBuffer[1] = {0x00};

	I2C_Read(IIC_BASEADDR, ADT7420_IIC_ADDR, ID_REG, 1, rxBuffer);
8000139c:	0c000964 	jal	80002590 <I2C_Read>
800013a0:	a3a00018 	sb	zero,24(sp)
C:\Users\Hust\Desktop\Peripheral_Interface_lab\MIPSfpga_ADT7420_C/ADT7420.c:181

	uart_print("Revision ID = ");
800013a4:	3c048000 	lui	a0,0x8000
800013a8:	0c000429 	jal	800010a4 <uart_print>
800013ac:	24842c14 	addiu	a0,a0,11284
C:\Users\Hust\Desktop\Peripheral_Interface_lab\MIPSfpga_ADT7420_C/ADT7420.c:182
	uart_print(my_itoa(rxBuffer[0] & REVISION_ID));
800013b0:	93a40018 	lbu	a0,24(sp)
C:\Users\Hust\Desktop\Peripheral_Interface_lab\MIPSfpga_ADT7420_C/ADT7420.c:183
	uart_print("\n\r");
800013b4:	3c108000 	lui	s0,0x8000
C:\Users\Hust\Desktop\Peripheral_Interface_lab\MIPSfpga_ADT7420_C/ADT7420.c:182
	unsigned char rxBuffer[1] = {0x00};

	I2C_Read(IIC_BASEADDR, ADT7420_IIC_ADDR, ID_REG, 1, rxBuffer);

	uart_print("Revision ID = ");
	uart_print(my_itoa(rxBuffer[0] & REVISION_ID));
800013b8:	0c000467 	jal	8000119c <my_itoa>
800013bc:	30840007 	andi	a0,a0,0x7
800013c0:	0c000429 	jal	800010a4 <uart_print>
800013c4:	00402021 	move	a0,v0
C:\Users\Hust\Desktop\Peripheral_Interface_lab\MIPSfpga_ADT7420_C/ADT7420.c:183
	uart_print("\n\r");
800013c8:	0c000429 	jal	800010a4 <uart_print>
800013cc:	26043324 	addiu	a0,s0,13092
C:\Users\Hust\Desktop\Peripheral_Interface_lab\MIPSfpga_ADT7420_C/ADT7420.c:184
	uart_print("Manufacture ID = ");
800013d0:	3c048000 	lui	a0,0x8000
800013d4:	0c000429 	jal	800010a4 <uart_print>
800013d8:	24842c24 	addiu	a0,a0,11300
C:\Users\Hust\Desktop\Peripheral_Interface_lab\MIPSfpga_ADT7420_C/ADT7420.c:185
	uart_print(my_itoa((rxBuffer[0] & MANUFACTURE_ID) >> 3));
800013dc:	93a40018 	lbu	a0,24(sp)
800013e0:	0c000467 	jal	8000119c <my_itoa>
800013e4:	000420c2 	srl	a0,a0,0x3
800013e8:	0c000429 	jal	800010a4 <uart_print>
800013ec:	00402021 	move	a0,v0
C:\Users\Hust\Desktop\Peripheral_Interface_lab\MIPSfpga_ADT7420_C/ADT7420.c:186
	uart_print("\n\r");
800013f0:	0c000429 	jal	800010a4 <uart_print>
800013f4:	26043324 	addiu	a0,s0,13092
C:\Users\Hust\Desktop\Peripheral_Interface_lab\MIPSfpga_ADT7420_C/ADT7420.c:187
	uart_print("-----------------------------------------\n\r");
800013f8:	3c048000 	lui	a0,0x8000
800013fc:	0c000429 	jal	800010a4 <uart_print>
80001400:	24842c38 	addiu	a0,a0,11320
C:\Users\Hust\Desktop\Peripheral_Interface_lab\MIPSfpga_ADT7420_C/ADT7420.c:188
}
80001404:	8fbf0024 	lw	ra,36(sp)
80001408:	8fb00020 	lw	s0,32(sp)
8000140c:	03e00008 	jr	ra
80001410:	27bd0028 	addiu	sp,sp,40

80001414 <ADT7420_DisplayMainMenu>:
ADT7420_DisplayMainMenu():
C:\Users\Hust\Desktop\Peripheral_Interface_lab\MIPSfpga_ADT7420_C/ADT7420.c:199
*
* @return None.
******************************************************************************/
void ADT7420_DisplayMainMenu(void)
{
	uart_print("\n\rADT7420 Demo Program \n\r");
80001414:	3c048000 	lui	a0,0x8000
C:\Users\Hust\Desktop\Peripheral_Interface_lab\MIPSfpga_ADT7420_C/ADT7420.c:198
* @param None.
*
* @return None.
******************************************************************************/
void ADT7420_DisplayMainMenu(void)
{
80001418:	27bdffe8 	addiu	sp,sp,-24
8000141c:	afbf0014 	sw	ra,20(sp)
C:\Users\Hust\Desktop\Peripheral_Interface_lab\MIPSfpga_ADT7420_C/ADT7420.c:199
	uart_print("\n\rADT7420 Demo Program \n\r");
80001420:	0c000429 	jal	800010a4 <uart_print>
80001424:	24842c64 	addiu	a0,a0,11364
C:\Users\Hust\Desktop\Peripheral_Interface_lab\MIPSfpga_ADT7420_C/ADT7420.c:201

	ADT7420_PrintID();
80001428:	0c0004de 	jal	80001378 <ADT7420_PrintID>
8000142c:	00000000 	nop
C:\Users\Hust\Desktop\Peripheral_Interface_lab\MIPSfpga_ADT7420_C/ADT7420.c:203

	uart_print("Available options: \n\r");
80001430:	3c048000 	lui	a0,0x8000
80001434:	0c000429 	jal	800010a4 <uart_print>
80001438:	24842c80 	addiu	a0,a0,11392
C:\Users\Hust\Desktop\Peripheral_Interface_lab\MIPSfpga_ADT7420_C/ADT7420.c:204
	uart_print("	[t] Read Temperature\n\r");
8000143c:	3c048000 	lui	a0,0x8000
80001440:	0c000429 	jal	800010a4 <uart_print>
80001444:	24842c98 	addiu	a0,a0,11416
C:\Users\Hust\Desktop\Peripheral_Interface_lab\MIPSfpga_ADT7420_C/ADT7420.c:205
	uart_print("	[r] Set Resolution\n\r");
80001448:	3c048000 	lui	a0,0x8000
8000144c:	0c000429 	jal	800010a4 <uart_print>
80001450:	24842cb0 	addiu	a0,a0,11440
C:\Users\Hust\Desktop\Peripheral_Interface_lab\MIPSfpga_ADT7420_C/ADT7420.c:206
	uart_print("	[h] Set THigh\n\r");
80001454:	3c048000 	lui	a0,0x8000
80001458:	0c000429 	jal	800010a4 <uart_print>
8000145c:	24842cc8 	addiu	a0,a0,11464
C:\Users\Hust\Desktop\Peripheral_Interface_lab\MIPSfpga_ADT7420_C/ADT7420.c:207
	uart_print("	[l] Set TLow\n\r");
80001460:	3c048000 	lui	a0,0x8000
80001464:	0c000429 	jal	800010a4 <uart_print>
80001468:	24842cdc 	addiu	a0,a0,11484
C:\Users\Hust\Desktop\Peripheral_Interface_lab\MIPSfpga_ADT7420_C/ADT7420.c:208
	uart_print("	[c] Set TCrit\n\r");
8000146c:	3c048000 	lui	a0,0x8000
80001470:	0c000429 	jal	800010a4 <uart_print>
80001474:	24842cec 	addiu	a0,a0,11500
C:\Users\Hust\Desktop\Peripheral_Interface_lab\MIPSfpga_ADT7420_C/ADT7420.c:209
	uart_print("	[y] Set THyst\n\r");
80001478:	3c048000 	lui	a0,0x8000
8000147c:	0c000429 	jal	800010a4 <uart_print>
80001480:	24842d00 	addiu	a0,a0,11520
C:\Users\Hust\Desktop\Peripheral_Interface_lab\MIPSfpga_ADT7420_C/ADT7420.c:210
	uart_print("	[f] Set Fault Queue\n\r");
80001484:	3c048000 	lui	a0,0x8000
80001488:	0c000429 	jal	800010a4 <uart_print>
8000148c:	24842d14 	addiu	a0,a0,11540
C:\Users\Hust\Desktop\Peripheral_Interface_lab\MIPSfpga_ADT7420_C/ADT7420.c:211
	uart_print("	[s] Display Settings \n\r");
80001490:	3c048000 	lui	a0,0x8000
80001494:	0c000429 	jal	800010a4 <uart_print>
80001498:	24842d2c 	addiu	a0,a0,11564
C:\Users\Hust\Desktop\Peripheral_Interface_lab\MIPSfpga_ADT7420_C/ADT7420.c:212
	uart_print("	[m] Stop the program and display this menu\n\r");
8000149c:	3c048000 	lui	a0,0x8000
800014a0:	0c000429 	jal	800010a4 <uart_print>
800014a4:	24842d48 	addiu	a0,a0,11592
C:\Users\Hust\Desktop\Peripheral_Interface_lab\MIPSfpga_ADT7420_C/ADT7420.c:213
	uart_print("\n\r");
800014a8:	3c048000 	lui	a0,0x8000
800014ac:	0c000429 	jal	800010a4 <uart_print>
800014b0:	24843324 	addiu	a0,a0,13092
C:\Users\Hust\Desktop\Peripheral_Interface_lab\MIPSfpga_ADT7420_C/ADT7420.c:214
	uart_print("Press key to select desired option\n\r");
800014b4:	3c048000 	lui	a0,0x8000
800014b8:	0c000429 	jal	800010a4 <uart_print>
800014bc:	24842d78 	addiu	a0,a0,11640
C:\Users\Hust\Desktop\Peripheral_Interface_lab\MIPSfpga_ADT7420_C/ADT7420.c:216
	uart_print("Press [q] to exit the application\n\r");
}
800014c0:	8fbf0014 	lw	ra,20(sp)
C:\Users\Hust\Desktop\Peripheral_Interface_lab\MIPSfpga_ADT7420_C/ADT7420.c:215
	uart_print("	[f] Set Fault Queue\n\r");
	uart_print("	[s] Display Settings \n\r");
	uart_print("	[m] Stop the program and display this menu\n\r");
	uart_print("\n\r");
	uart_print("Press key to select desired option\n\r");
	uart_print("Press [q] to exit the application\n\r");
800014c4:	3c048000 	lui	a0,0x8000
800014c8:	24842da0 	addiu	a0,a0,11680
800014cc:	08000429 	j	800010a4 <uart_print>
800014d0:	27bd0018 	addiu	sp,sp,24

800014d4 <ADT7420_DisplayMenu>:
ADT7420_DisplayMenu():
C:\Users\Hust\Desktop\Peripheral_Interface_lab\MIPSfpga_ADT7420_C/ADT7420.c:227
*
* @return None.
******************************************************************************/
void ADT7420_DisplayMenu(void)
{
	uart_print("\n\rAvailable options: \n\r");
800014d4:	3c048000 	lui	a0,0x8000
C:\Users\Hust\Desktop\Peripheral_Interface_lab\MIPSfpga_ADT7420_C/ADT7420.c:226
* @param None.
*
* @return None.
******************************************************************************/
void ADT7420_DisplayMenu(void)
{
800014d8:	27bdffe8 	addiu	sp,sp,-24
800014dc:	afbf0014 	sw	ra,20(sp)
C:\Users\Hust\Desktop\Peripheral_Interface_lab\MIPSfpga_ADT7420_C/ADT7420.c:227
	uart_print("\n\rAvailable options: \n\r");
800014e0:	0c000429 	jal	800010a4 <uart_print>
800014e4:	24842dc4 	addiu	a0,a0,11716
C:\Users\Hust\Desktop\Peripheral_Interface_lab\MIPSfpga_ADT7420_C/ADT7420.c:228
	uart_print("	[t] Read Temperature\n\r");
800014e8:	3c048000 	lui	a0,0x8000
800014ec:	0c000429 	jal	800010a4 <uart_print>
800014f0:	24842c98 	addiu	a0,a0,11416
C:\Users\Hust\Desktop\Peripheral_Interface_lab\MIPSfpga_ADT7420_C/ADT7420.c:229
	uart_print("	[r] Set Resolution\n\r");
800014f4:	3c048000 	lui	a0,0x8000
800014f8:	0c000429 	jal	800010a4 <uart_print>
800014fc:	24842cb0 	addiu	a0,a0,11440
C:\Users\Hust\Desktop\Peripheral_Interface_lab\MIPSfpga_ADT7420_C/ADT7420.c:230
	uart_print("	[h] Set THigh\n\r");
80001500:	3c048000 	lui	a0,0x8000
80001504:	0c000429 	jal	800010a4 <uart_print>
80001508:	24842cc8 	addiu	a0,a0,11464
C:\Users\Hust\Desktop\Peripheral_Interface_lab\MIPSfpga_ADT7420_C/ADT7420.c:231
	uart_print("	[l] Set TLow\n\r");
8000150c:	3c048000 	lui	a0,0x8000
80001510:	0c000429 	jal	800010a4 <uart_print>
80001514:	24842cdc 	addiu	a0,a0,11484
C:\Users\Hust\Desktop\Peripheral_Interface_lab\MIPSfpga_ADT7420_C/ADT7420.c:232
	uart_print("	[c] Set TCrit\n\r");
80001518:	3c048000 	lui	a0,0x8000
8000151c:	0c000429 	jal	800010a4 <uart_print>
80001520:	24842cec 	addiu	a0,a0,11500
C:\Users\Hust\Desktop\Peripheral_Interface_lab\MIPSfpga_ADT7420_C/ADT7420.c:233
	uart_print("	[y] Set THyst\n\r");
80001524:	3c048000 	lui	a0,0x8000
80001528:	0c000429 	jal	800010a4 <uart_print>
8000152c:	24842d00 	addiu	a0,a0,11520
C:\Users\Hust\Desktop\Peripheral_Interface_lab\MIPSfpga_ADT7420_C/ADT7420.c:234
	uart_print("	[f] Set Fault Queue\n\r");
80001530:	3c048000 	lui	a0,0x8000
80001534:	0c000429 	jal	800010a4 <uart_print>
80001538:	24842d14 	addiu	a0,a0,11540
C:\Users\Hust\Desktop\Peripheral_Interface_lab\MIPSfpga_ADT7420_C/ADT7420.c:235
	uart_print("	[s] Display Settings \n\r");
8000153c:	3c048000 	lui	a0,0x8000
80001540:	0c000429 	jal	800010a4 <uart_print>
80001544:	24842d2c 	addiu	a0,a0,11564
C:\Users\Hust\Desktop\Peripheral_Interface_lab\MIPSfpga_ADT7420_C/ADT7420.c:236
	uart_print("	[m] Stop the program and display this menu\n\r");
80001548:	3c048000 	lui	a0,0x8000
8000154c:	0c000429 	jal	800010a4 <uart_print>
80001550:	24842d48 	addiu	a0,a0,11592
C:\Users\Hust\Desktop\Peripheral_Interface_lab\MIPSfpga_ADT7420_C/ADT7420.c:240


	rxData = 0;
}
80001554:	8fbf0014 	lw	ra,20(sp)
C:\Users\Hust\Desktop\Peripheral_Interface_lab\MIPSfpga_ADT7420_C/ADT7420.c:239
	uart_print("	[f] Set Fault Queue\n\r");
	uart_print("	[s] Display Settings \n\r");
	uart_print("	[m] Stop the program and display this menu\n\r");


	rxData = 0;
80001558:	af808008 	sw	zero,-32760(gp)
C:\Users\Hust\Desktop\Peripheral_Interface_lab\MIPSfpga_ADT7420_C/ADT7420.c:240
}
8000155c:	03e00008 	jr	ra
80001560:	27bd0018 	addiu	sp,sp,24

80001564 <ADT7420_GetResolution>:
ADT7420_GetResolution():
C:\Users\Hust\Desktop\Peripheral_Interface_lab\MIPSfpga_ADT7420_C/ADT7420.c:253
* @return (rxBuffer[0] & (1 << RESOLUTION)) - bit 7 of CONFIGURATION REGISTER
* 				 - 0 -> resolution is 13 bits
* 				 - 1 -> resolution is 16 bits.
******************************************************************************/
unsigned char ADT7420_GetResolution(char display)
{
80001564:	27bdffd8 	addiu	sp,sp,-40
C:\Users\Hust\Desktop\Peripheral_Interface_lab\MIPSfpga_ADT7420_C/ADT7420.c:255
	unsigned char rxBuffer[2] = {0x00, 0x00};
	I2C_Read(IIC_BASEADDR, ADT7420_IIC_ADDR, CONFIG_REG, 1, rxBuffer);
80001568:	27a20018 	addiu	v0,sp,24
8000156c:	2405004b 	li	a1,75
C:\Users\Hust\Desktop\Peripheral_Interface_lab\MIPSfpga_ADT7420_C/ADT7420.c:253
* @return (rxBuffer[0] & (1 << RESOLUTION)) - bit 7 of CONFIGURATION REGISTER
* 				 - 0 -> resolution is 13 bits
* 				 - 1 -> resolution is 16 bits.
******************************************************************************/
unsigned char ADT7420_GetResolution(char display)
{
80001570:	afb00020 	sw	s0,32(sp)
C:\Users\Hust\Desktop\Peripheral_Interface_lab\MIPSfpga_ADT7420_C/ADT7420.c:255
	unsigned char rxBuffer[2] = {0x00, 0x00};
	I2C_Read(IIC_BASEADDR, ADT7420_IIC_ADDR, CONFIG_REG, 1, rxBuffer);
80001574:	afa20010 	sw	v0,16(sp)
C:\Users\Hust\Desktop\Peripheral_Interface_lab\MIPSfpga_ADT7420_C/ADT7420.c:253
* @return (rxBuffer[0] & (1 << RESOLUTION)) - bit 7 of CONFIGURATION REGISTER
* 				 - 0 -> resolution is 13 bits
* 				 - 1 -> resolution is 16 bits.
******************************************************************************/
unsigned char ADT7420_GetResolution(char display)
{
80001578:	309000ff 	andi	s0,a0,0xff
C:\Users\Hust\Desktop\Peripheral_Interface_lab\MIPSfpga_ADT7420_C/ADT7420.c:255
	unsigned char rxBuffer[2] = {0x00, 0x00};
	I2C_Read(IIC_BASEADDR, ADT7420_IIC_ADDR, CONFIG_REG, 1, rxBuffer);
8000157c:	24060003 	li	a2,3
80001580:	3c04b0a0 	lui	a0,0xb0a0
80001584:	24070001 	li	a3,1
C:\Users\Hust\Desktop\Peripheral_Interface_lab\MIPSfpga_ADT7420_C/ADT7420.c:253
* @return (rxBuffer[0] & (1 << RESOLUTION)) - bit 7 of CONFIGURATION REGISTER
* 				 - 0 -> resolution is 13 bits
* 				 - 1 -> resolution is 16 bits.
******************************************************************************/
unsigned char ADT7420_GetResolution(char display)
{
80001588:	afbf0024 	sw	ra,36(sp)
C:\Users\Hust\Desktop\Peripheral_Interface_lab\MIPSfpga_ADT7420_C/ADT7420.c:254
	unsigned char rxBuffer[2] = {0x00, 0x00};
8000158c:	a3a00018 	sb	zero,24(sp)
C:\Users\Hust\Desktop\Peripheral_Interface_lab\MIPSfpga_ADT7420_C/ADT7420.c:255
	I2C_Read(IIC_BASEADDR, ADT7420_IIC_ADDR, CONFIG_REG, 1, rxBuffer);
80001590:	0c000964 	jal	80002590 <I2C_Read>
80001594:	a3a00019 	sb	zero,25(sp)
C:\Users\Hust\Desktop\Peripheral_Interface_lab\MIPSfpga_ADT7420_C/ADT7420.c:257

	if(display == 1)
80001598:	24020001 	li	v0,1
8000159c:	12020006 	beq	s0,v0,800015b8 <ADT7420_GetResolution+0x54>
800015a0:	93a20018 	lbu	v0,24(sp)
C:\Users\Hust\Desktop\Peripheral_Interface_lab\MIPSfpga_ADT7420_C/ADT7420.c:270
			uart_print("Resolution is 16 bits (0.0078 C/LSB)\n\r");
		}
	}

	return (rxBuffer[0] & (1 << RESOLUTION));
}
800015a4:	8fbf0024 	lw	ra,36(sp)
800015a8:	8fb00020 	lw	s0,32(sp)
800015ac:	30420080 	andi	v0,v0,0x80
800015b0:	03e00008 	jr	ra
800015b4:	27bd0028 	addiu	sp,sp,40
C:\Users\Hust\Desktop\Peripheral_Interface_lab\MIPSfpga_ADT7420_C/ADT7420.c:259
	unsigned char rxBuffer[2] = {0x00, 0x00};
	I2C_Read(IIC_BASEADDR, ADT7420_IIC_ADDR, CONFIG_REG, 1, rxBuffer);

	if(display == 1)
	{
		if((rxBuffer[0] & (1 << RESOLUTION)) == 0)
800015b8:	83a20018 	lb	v0,24(sp)
800015bc:	0442000a 	bltzl	v0,800015e8 <ADT7420_GetResolution+0x84>
800015c0:	3c048000 	lui	a0,0x8000
C:\Users\Hust\Desktop\Peripheral_Interface_lab\MIPSfpga_ADT7420_C/ADT7420.c:261
		{
			uart_print("Resolution is 13 bits (0.0625 C/LSB)\n\r");
800015c4:	3c048000 	lui	a0,0x8000
800015c8:	0c000429 	jal	800010a4 <uart_print>
800015cc:	24842ddc 	addiu	a0,a0,11740
C:\Users\Hust\Desktop\Peripheral_Interface_lab\MIPSfpga_ADT7420_C/ADT7420.c:269
		{
			uart_print("Resolution is 16 bits (0.0078 C/LSB)\n\r");
		}
	}

	return (rxBuffer[0] & (1 << RESOLUTION));
800015d0:	93a20018 	lbu	v0,24(sp)
C:\Users\Hust\Desktop\Peripheral_Interface_lab\MIPSfpga_ADT7420_C/ADT7420.c:270
}
800015d4:	8fbf0024 	lw	ra,36(sp)
800015d8:	8fb00020 	lw	s0,32(sp)
800015dc:	30420080 	andi	v0,v0,0x80
800015e0:	03e00008 	jr	ra
800015e4:	27bd0028 	addiu	sp,sp,40
C:\Users\Hust\Desktop\Peripheral_Interface_lab\MIPSfpga_ADT7420_C/ADT7420.c:265
		{
			uart_print("Resolution is 13 bits (0.0625 C/LSB)\n\r");
		}
		else
		{
			uart_print("Resolution is 16 bits (0.0078 C/LSB)\n\r");
800015e8:	0c000429 	jal	800010a4 <uart_print>
800015ec:	24842e04 	addiu	a0,a0,11780
C:\Users\Hust\Desktop\Peripheral_Interface_lab\MIPSfpga_ADT7420_C/ADT7420.c:269
		}
	}

	return (rxBuffer[0] & (1 << RESOLUTION));
800015f0:	93a20018 	lbu	v0,24(sp)
C:\Users\Hust\Desktop\Peripheral_Interface_lab\MIPSfpga_ADT7420_C/ADT7420.c:270
}
800015f4:	8fbf0024 	lw	ra,36(sp)
800015f8:	8fb00020 	lw	s0,32(sp)
800015fc:	30420080 	andi	v0,v0,0x80
80001600:	03e00008 	jr	ra
80001604:	27bd0028 	addiu	sp,sp,40

80001608 <ADT7420_DisplayResolutionMenu>:
ADT7420_DisplayResolutionMenu():
C:\Users\Hust\Desktop\Peripheral_Interface_lab\MIPSfpga_ADT7420_C/ADT7420.c:281
*
* @return None.
******************************************************************************/
void ADT7420_DisplayResolutionMenu(void)
{
	uart_print("\n\r>Set Resolution Menu\n\r");
80001608:	3c048000 	lui	a0,0x8000
C:\Users\Hust\Desktop\Peripheral_Interface_lab\MIPSfpga_ADT7420_C/ADT7420.c:280
* @param None.
*
* @return None.
******************************************************************************/
void ADT7420_DisplayResolutionMenu(void)
{
8000160c:	27bdffe8 	addiu	sp,sp,-24
80001610:	afbf0014 	sw	ra,20(sp)
C:\Users\Hust\Desktop\Peripheral_Interface_lab\MIPSfpga_ADT7420_C/ADT7420.c:281
	uart_print("\n\r>Set Resolution Menu\n\r");
80001614:	0c000429 	jal	800010a4 <uart_print>
80001618:	24842e2c 	addiu	a0,a0,11820
C:\Users\Hust\Desktop\Peripheral_Interface_lab\MIPSfpga_ADT7420_C/ADT7420.c:282
	uart_print("-----------------------------------------\n\r");
8000161c:	3c048000 	lui	a0,0x8000
80001620:	0c000429 	jal	800010a4 <uart_print>
80001624:	24842c38 	addiu	a0,a0,11320
C:\Users\Hust\Desktop\Peripheral_Interface_lab\MIPSfpga_ADT7420_C/ADT7420.c:283
	uart_print("Possible resolutions are:\n\r");
80001628:	3c048000 	lui	a0,0x8000
8000162c:	0c000429 	jal	800010a4 <uart_print>
80001630:	24842e48 	addiu	a0,a0,11848
C:\Users\Hust\Desktop\Peripheral_Interface_lab\MIPSfpga_ADT7420_C/ADT7420.c:284
	uart_print("	1. 13 bits (0.0625 C/LSB):\n\r");
80001634:	3c048000 	lui	a0,0x8000
80001638:	0c000429 	jal	800010a4 <uart_print>
8000163c:	24842e64 	addiu	a0,a0,11876
C:\Users\Hust\Desktop\Peripheral_Interface_lab\MIPSfpga_ADT7420_C/ADT7420.c:286
	uart_print("	2. 16 bits (0.0078 C/LSB):\n\r");
}
80001640:	8fbf0014 	lw	ra,20(sp)
C:\Users\Hust\Desktop\Peripheral_Interface_lab\MIPSfpga_ADT7420_C/ADT7420.c:285
{
	uart_print("\n\r>Set Resolution Menu\n\r");
	uart_print("-----------------------------------------\n\r");
	uart_print("Possible resolutions are:\n\r");
	uart_print("	1. 13 bits (0.0625 C/LSB):\n\r");
	uart_print("	2. 16 bits (0.0078 C/LSB):\n\r");
80001644:	3c048000 	lui	a0,0x8000
80001648:	24842e84 	addiu	a0,a0,11908
8000164c:	08000429 	j	800010a4 <uart_print>
80001650:	27bd0018 	addiu	sp,sp,24

80001654 <ADT7420_SetResolution>:
ADT7420_SetResolution():
C:\Users\Hust\Desktop\Peripheral_Interface_lab\MIPSfpga_ADT7420_C/ADT7420.c:296
* @param None
*
* @return None
******************************************************************************/
void ADT7420_SetResolution(void)
{
80001654:	27bdffd8 	addiu	sp,sp,-40
80001658:	afbf0024 	sw	ra,36(sp)
C:\Users\Hust\Desktop\Peripheral_Interface_lab\MIPSfpga_ADT7420_C/ADT7420.c:300
	unsigned char txBuffer[1] = { 0x00 };
	char          rx          = 0;

	ADT7420_DisplayResolutionMenu();
8000165c:	0c000582 	jal	80001608 <ADT7420_DisplayResolutionMenu>
80001660:	a3a00018 	sb	zero,24(sp)
C:\Users\Hust\Desktop\Peripheral_Interface_lab\MIPSfpga_ADT7420_C/ADT7420.c:304

	// Check if data is available on the UART
	// Store and display received data
	rx = uart_inbyte();
80001664:	0c000421 	jal	80001084 <uart_inbyte>
80001668:	00000000 	nop
C:\Users\Hust\Desktop\Peripheral_Interface_lab\MIPSfpga_ADT7420_C/ADT7420.c:306

	switch (rx)
8000166c:	24030031 	li	v1,49
80001670:	10430029 	beq	v0,v1,80001718 <ADT7420_SetResolution+0xc4>
80001674:	24030032 	li	v1,50
80001678:	1043000d 	beq	v0,v1,800016b0 <ADT7420_SetResolution+0x5c>
8000167c:	3c048000 	lui	a0,0x8000
C:\Users\Hust\Desktop\Peripheral_Interface_lab\MIPSfpga_ADT7420_C/ADT7420.c:323
			TUpper = 0xFFFF;
			rxData = 'm';
			uart_print("\n\r>Returning to Main Menu...\n\r");
			break;
		default:
			uart_print("Wrong option!\n\r");
80001680:	0c000429 	jal	800010a4 <uart_print>
80001684:	24842ec4 	addiu	a0,a0,11972
C:\Users\Hust\Desktop\Peripheral_Interface_lab\MIPSfpga_ADT7420_C/ADT7420.c:327
			break;
		}

	I2C_Write(IIC_BASEADDR, ADT7420_IIC_ADDR, CONFIG_REG, 1, txBuffer);
80001688:	27a20018 	addiu	v0,sp,24
8000168c:	afa20010 	sw	v0,16(sp)
80001690:	3c04b0a0 	lui	a0,0xb0a0
80001694:	2405004b 	li	a1,75
80001698:	24060003 	li	a2,3
8000169c:	0c00099c 	jal	80002670 <I2C_Write>
800016a0:	24070001 	li	a3,1
C:\Users\Hust\Desktop\Peripheral_Interface_lab\MIPSfpga_ADT7420_C/ADT7420.c:328
}
800016a4:	8fbf0024 	lw	ra,36(sp)
800016a8:	03e00008 	jr	ra
800016ac:	27bd0028 	addiu	sp,sp,40
C:\Users\Hust\Desktop\Peripheral_Interface_lab\MIPSfpga_ADT7420_C/ADT7420.c:316
			TUpper = 0x1FFF;
			rxData = 'm';
			uart_print("\n\r>Returning to Main Menu...\n\r");
			break;
		case '2' :
			txBuffer[0] = (1 << RESOLUTION) | ADT7420_ReadConfigReg();
800016b0:	0c0004cf 	jal	8000133c <ADT7420_ReadConfigReg>
800016b4:	00000000 	nop
800016b8:	2403ff80 	li	v1,-128
C:\Users\Hust\Desktop\Peripheral_Interface_lab\MIPSfpga_ADT7420_C/ADT7420.c:317
			uart_print("Resolution is 16 bits (0.0078 C/LSB)\n\r");
800016bc:	3c048000 	lui	a0,0x8000
C:\Users\Hust\Desktop\Peripheral_Interface_lab\MIPSfpga_ADT7420_C/ADT7420.c:316
			TUpper = 0x1FFF;
			rxData = 'm';
			uart_print("\n\r>Returning to Main Menu...\n\r");
			break;
		case '2' :
			txBuffer[0] = (1 << RESOLUTION) | ADT7420_ReadConfigReg();
800016c0:	00431025 	or	v0,v0,v1
C:\Users\Hust\Desktop\Peripheral_Interface_lab\MIPSfpga_ADT7420_C/ADT7420.c:317
			uart_print("Resolution is 16 bits (0.0078 C/LSB)\n\r");
800016c4:	24842e04 	addiu	a0,a0,11780
800016c8:	0c000429 	jal	800010a4 <uart_print>
800016cc:	a3a20018 	sb	v0,24(sp)
C:\Users\Hust\Desktop\Peripheral_Interface_lab\MIPSfpga_ADT7420_C/ADT7420.c:318
			TUpper = 0xFFFF;
800016d0:	3402ffff 	li	v0,0xffff
C:\Users\Hust\Desktop\Peripheral_Interface_lab\MIPSfpga_ADT7420_C/ADT7420.c:320
			rxData = 'm';
			uart_print("\n\r>Returning to Main Menu...\n\r");
800016d4:	3c048000 	lui	a0,0x8000
800016d8:	24842ea4 	addiu	a0,a0,11940
C:\Users\Hust\Desktop\Peripheral_Interface_lab\MIPSfpga_ADT7420_C/ADT7420.c:318
			uart_print("\n\r>Returning to Main Menu...\n\r");
			break;
		case '2' :
			txBuffer[0] = (1 << RESOLUTION) | ADT7420_ReadConfigReg();
			uart_print("Resolution is 16 bits (0.0078 C/LSB)\n\r");
			TUpper = 0xFFFF;
800016dc:	af828000 	sw	v0,-32768(gp)
C:\Users\Hust\Desktop\Peripheral_Interface_lab\MIPSfpga_ADT7420_C/ADT7420.c:319
			rxData = 'm';
800016e0:	2402006d 	li	v0,109
800016e4:	af828008 	sw	v0,-32760(gp)
C:\Users\Hust\Desktop\Peripheral_Interface_lab\MIPSfpga_ADT7420_C/ADT7420.c:320
			uart_print("\n\r>Returning to Main Menu...\n\r");
800016e8:	0c000429 	jal	800010a4 <uart_print>
800016ec:	00000000 	nop
C:\Users\Hust\Desktop\Peripheral_Interface_lab\MIPSfpga_ADT7420_C/ADT7420.c:327
		default:
			uart_print("Wrong option!\n\r");
			break;
		}

	I2C_Write(IIC_BASEADDR, ADT7420_IIC_ADDR, CONFIG_REG, 1, txBuffer);
800016f0:	27a20018 	addiu	v0,sp,24
800016f4:	afa20010 	sw	v0,16(sp)
800016f8:	3c04b0a0 	lui	a0,0xb0a0
800016fc:	2405004b 	li	a1,75
80001700:	24060003 	li	a2,3
80001704:	0c00099c 	jal	80002670 <I2C_Write>
80001708:	24070001 	li	a3,1
C:\Users\Hust\Desktop\Peripheral_Interface_lab\MIPSfpga_ADT7420_C/ADT7420.c:328
}
8000170c:	8fbf0024 	lw	ra,36(sp)
80001710:	03e00008 	jr	ra
80001714:	27bd0028 	addiu	sp,sp,40
C:\Users\Hust\Desktop\Peripheral_Interface_lab\MIPSfpga_ADT7420_C/ADT7420.c:309
	rx = uart_inbyte();

	switch (rx)
		{
		case '1' :
			txBuffer[0] = (0 << RESOLUTION) | ADT7420_ReadConfigReg() ; // so as not to change other configuration parameters
80001718:	0c0004cf 	jal	8000133c <ADT7420_ReadConfigReg>
8000171c:	00000000 	nop
C:\Users\Hust\Desktop\Peripheral_Interface_lab\MIPSfpga_ADT7420_C/ADT7420.c:310
			uart_print("Resolution is 13 bits (0.0625 C/LSB)\n\r");
80001720:	3c048000 	lui	a0,0x8000
80001724:	24842ddc 	addiu	a0,a0,11740
80001728:	0c000429 	jal	800010a4 <uart_print>
8000172c:	a3a20018 	sb	v0,24(sp)
C:\Users\Hust\Desktop\Peripheral_Interface_lab\MIPSfpga_ADT7420_C/ADT7420.c:311
			TUpper = 0x1FFF;
80001730:	24021fff 	li	v0,8191
C:\Users\Hust\Desktop\Peripheral_Interface_lab\MIPSfpga_ADT7420_C/ADT7420.c:313
			rxData = 'm';
			uart_print("\n\r>Returning to Main Menu...\n\r");
80001734:	3c048000 	lui	a0,0x8000
80001738:	24842ea4 	addiu	a0,a0,11940
C:\Users\Hust\Desktop\Peripheral_Interface_lab\MIPSfpga_ADT7420_C/ADT7420.c:311
	switch (rx)
		{
		case '1' :
			txBuffer[0] = (0 << RESOLUTION) | ADT7420_ReadConfigReg() ; // so as not to change other configuration parameters
			uart_print("Resolution is 13 bits (0.0625 C/LSB)\n\r");
			TUpper = 0x1FFF;
8000173c:	af828000 	sw	v0,-32768(gp)
C:\Users\Hust\Desktop\Peripheral_Interface_lab\MIPSfpga_ADT7420_C/ADT7420.c:312
			rxData = 'm';
80001740:	2402006d 	li	v0,109
80001744:	af828008 	sw	v0,-32760(gp)
C:\Users\Hust\Desktop\Peripheral_Interface_lab\MIPSfpga_ADT7420_C/ADT7420.c:313
			uart_print("\n\r>Returning to Main Menu...\n\r");
80001748:	0c000429 	jal	800010a4 <uart_print>
8000174c:	00000000 	nop
C:\Users\Hust\Desktop\Peripheral_Interface_lab\MIPSfpga_ADT7420_C/ADT7420.c:327
		default:
			uart_print("Wrong option!\n\r");
			break;
		}

	I2C_Write(IIC_BASEADDR, ADT7420_IIC_ADDR, CONFIG_REG, 1, txBuffer);
80001750:	27a20018 	addiu	v0,sp,24
80001754:	afa20010 	sw	v0,16(sp)
80001758:	3c04b0a0 	lui	a0,0xb0a0
8000175c:	2405004b 	li	a1,75
80001760:	24060003 	li	a2,3
80001764:	0c00099c 	jal	80002670 <I2C_Write>
80001768:	24070001 	li	a3,1
C:\Users\Hust\Desktop\Peripheral_Interface_lab\MIPSfpga_ADT7420_C/ADT7420.c:328
}
8000176c:	8fbf0024 	lw	ra,36(sp)
80001770:	03e00008 	jr	ra
80001774:	27bd0028 	addiu	sp,sp,40

80001778 <ADT7420_ReadTemp>:
ADT7420_ReadTemp():
C:\Users\Hust\Desktop\Peripheral_Interface_lab\MIPSfpga_ADT7420_C/ADT7420.c:338
* @param None.
*
* @return data - value read from the Temperature MSB and LSB registers.
******************************************************************************/
int ADT7420_ReadTemp(void)
{
80001778:	27bdffd8 	addiu	sp,sp,-40
C:\Users\Hust\Desktop\Peripheral_Interface_lab\MIPSfpga_ADT7420_C/ADT7420.c:342
	unsigned char rxBuffer[2]  = {0x00,0x00};
	int           data         = 0;

	I2C_Read(IIC_BASEADDR, ADT7420_IIC_ADDR, TEMP_REG, 2, rxBuffer);
8000177c:	27a20018 	addiu	v0,sp,24
80001780:	3c04b0a0 	lui	a0,0xb0a0
80001784:	afa20010 	sw	v0,16(sp)
80001788:	2405004b 	li	a1,75
8000178c:	00003021 	move	a2,zero
80001790:	24070002 	li	a3,2
C:\Users\Hust\Desktop\Peripheral_Interface_lab\MIPSfpga_ADT7420_C/ADT7420.c:338
* @param None.
*
* @return data - value read from the Temperature MSB and LSB registers.
******************************************************************************/
int ADT7420_ReadTemp(void)
{
80001794:	afbf0024 	sw	ra,36(sp)
C:\Users\Hust\Desktop\Peripheral_Interface_lab\MIPSfpga_ADT7420_C/ADT7420.c:339
	unsigned char rxBuffer[2]  = {0x00,0x00};
80001798:	a3a00018 	sb	zero,24(sp)
C:\Users\Hust\Desktop\Peripheral_Interface_lab\MIPSfpga_ADT7420_C/ADT7420.c:342
	int           data         = 0;

	I2C_Read(IIC_BASEADDR, ADT7420_IIC_ADDR, TEMP_REG, 2, rxBuffer);
8000179c:	0c000964 	jal	80002590 <I2C_Read>
800017a0:	a3a00019 	sb	zero,25(sp)
C:\Users\Hust\Desktop\Peripheral_Interface_lab\MIPSfpga_ADT7420_C/ADT7420.c:344

	if(ADT7420_GetResolution(0) == 0)
800017a4:	0c000559 	jal	80001564 <ADT7420_GetResolution>
800017a8:	00002021 	move	a0,zero
800017ac:	10400007 	beqz	v0,800017cc <ADT7420_ReadTemp+0x54>
800017b0:	93a20018 	lbu	v0,24(sp)
C:\Users\Hust\Desktop\Peripheral_Interface_lab\MIPSfpga_ADT7420_C/ADT7420.c:350
	{
		data = (rxBuffer[0] << 5) | (rxBuffer[1] >> 3);
	}
	else
	{
		data = (rxBuffer[0] << 8) | (rxBuffer[1]);
800017b4:	93a30019 	lbu	v1,25(sp)
C:\Users\Hust\Desktop\Peripheral_Interface_lab\MIPSfpga_ADT7420_C/ADT7420.c:354
	}

	return (data);
}
800017b8:	8fbf0024 	lw	ra,36(sp)
C:\Users\Hust\Desktop\Peripheral_Interface_lab\MIPSfpga_ADT7420_C/ADT7420.c:350
	{
		data = (rxBuffer[0] << 5) | (rxBuffer[1] >> 3);
	}
	else
	{
		data = (rxBuffer[0] << 8) | (rxBuffer[1]);
800017bc:	00021200 	sll	v0,v0,0x8
800017c0:	00431025 	or	v0,v0,v1
C:\Users\Hust\Desktop\Peripheral_Interface_lab\MIPSfpga_ADT7420_C/ADT7420.c:354
	}

	return (data);
}
800017c4:	03e00008 	jr	ra
800017c8:	27bd0028 	addiu	sp,sp,40
C:\Users\Hust\Desktop\Peripheral_Interface_lab\MIPSfpga_ADT7420_C/ADT7420.c:346

	I2C_Read(IIC_BASEADDR, ADT7420_IIC_ADDR, TEMP_REG, 2, rxBuffer);

	if(ADT7420_GetResolution(0) == 0)
	{
		data = (rxBuffer[0] << 5) | (rxBuffer[1] >> 3);
800017cc:	93a20019 	lbu	v0,25(sp)
800017d0:	93a40018 	lbu	a0,24(sp)
C:\Users\Hust\Desktop\Peripheral_Interface_lab\MIPSfpga_ADT7420_C/ADT7420.c:354
	{
		data = (rxBuffer[0] << 8) | (rxBuffer[1]);
	}

	return (data);
}
800017d4:	8fbf0024 	lw	ra,36(sp)
C:\Users\Hust\Desktop\Peripheral_Interface_lab\MIPSfpga_ADT7420_C/ADT7420.c:346

	I2C_Read(IIC_BASEADDR, ADT7420_IIC_ADDR, TEMP_REG, 2, rxBuffer);

	if(ADT7420_GetResolution(0) == 0)
	{
		data = (rxBuffer[0] << 5) | (rxBuffer[1] >> 3);
800017d8:	000218c2 	srl	v1,v0,0x3
800017dc:	00041140 	sll	v0,a0,0x5
800017e0:	00621025 	or	v0,v1,v0
C:\Users\Hust\Desktop\Peripheral_Interface_lab\MIPSfpga_ADT7420_C/ADT7420.c:354
	{
		data = (rxBuffer[0] << 8) | (rxBuffer[1]);
	}

	return (data);
}
800017e4:	03e00008 	jr	ra
800017e8:	27bd0028 	addiu	sp,sp,40

800017ec <Display_Temp>:
Display_Temp():
C:\Users\Hust\Desktop\Peripheral_Interface_lab\MIPSfpga_ADT7420_C/ADT7420.c:364
* @param data - value read from the Temperature MSB and LSB registers.
*
* @return None.
******************************************************************************/
void Display_Temp(short int data)
{
800017ec:	27bdffe8 	addiu	sp,sp,-24
800017f0:	afb00010 	sw	s0,16(sp)
800017f4:	7c048620 	seh	s0,a0
C:\Users\Hust\Desktop\Peripheral_Interface_lab\MIPSfpga_ADT7420_C/ADT7420.c:381
	else
	{
		value = data / 128;
	}
*/
	if(value >= 0)
800017f8:	0600000e 	bltz	s0,80001834 <Display_Temp+0x48>
800017fc:	afbf0014 	sw	ra,20(sp)
C:\Users\Hust\Desktop\Peripheral_Interface_lab\MIPSfpga_ADT7420_C/ADT7420.c:383
	{
	    uart_print("T = ");
80001800:	3c048000 	lui	a0,0x8000
80001804:	0c000429 	jal	800010a4 <uart_print>
80001808:	24842ed4 	addiu	a0,a0,11988
C:\Users\Hust\Desktop\Peripheral_Interface_lab\MIPSfpga_ADT7420_C/ADT7420.c:391
	}
	else
	{
		value = value * (-1);
		uart_print("T = -");
		uart_print(my_itoa(value));
8000180c:	0c000467 	jal	8000119c <my_itoa>
80001810:	02002021 	move	a0,s0
80001814:	0c000429 	jal	800010a4 <uart_print>
80001818:	00402021 	move	a0,v0
C:\Users\Hust\Desktop\Peripheral_Interface_lab\MIPSfpga_ADT7420_C/ADT7420.c:394
		uart_print(".00 C\n\r");
	}
}
8000181c:	8fbf0014 	lw	ra,20(sp)
80001820:	8fb00010 	lw	s0,16(sp)
C:\Users\Hust\Desktop\Peripheral_Interface_lab\MIPSfpga_ADT7420_C/ADT7420.c:392
	else
	{
		value = value * (-1);
		uart_print("T = -");
		uart_print(my_itoa(value));
		uart_print(".00 C\n\r");
80001824:	3c048000 	lui	a0,0x8000
80001828:	24842edc 	addiu	a0,a0,11996
8000182c:	08000429 	j	800010a4 <uart_print>
80001830:	27bd0018 	addiu	sp,sp,24
C:\Users\Hust\Desktop\Peripheral_Interface_lab\MIPSfpga_ADT7420_C/ADT7420.c:390
		uart_print(".00 C\n\r");
	}
	else
	{
		value = value * (-1);
		uart_print("T = -");
80001834:	3c048000 	lui	a0,0x8000
80001838:	0c000429 	jal	800010a4 <uart_print>
8000183c:	24842ee4 	addiu	a0,a0,12004
C:\Users\Hust\Desktop\Peripheral_Interface_lab\MIPSfpga_ADT7420_C/ADT7420.c:391
		uart_print(my_itoa(value));
80001840:	0c000467 	jal	8000119c <my_itoa>
80001844:	00102023 	negu	a0,s0
80001848:	0c000429 	jal	800010a4 <uart_print>
8000184c:	00402021 	move	a0,v0
C:\Users\Hust\Desktop\Peripheral_Interface_lab\MIPSfpga_ADT7420_C/ADT7420.c:394
		uart_print(".00 C\n\r");
	}
}
80001850:	8fbf0014 	lw	ra,20(sp)
80001854:	8fb00010 	lw	s0,16(sp)
C:\Users\Hust\Desktop\Peripheral_Interface_lab\MIPSfpga_ADT7420_C/ADT7420.c:392
	else
	{
		value = value * (-1);
		uart_print("T = -");
		uart_print(my_itoa(value));
		uart_print(".00 C\n\r");
80001858:	3c048000 	lui	a0,0x8000
8000185c:	24842edc 	addiu	a0,a0,11996
80001860:	08000429 	j	800010a4 <uart_print>
80001864:	27bd0018 	addiu	sp,sp,24

80001868 <ADT7420_ConsoleRead>:
ADT7420_ConsoleRead():
C:\Users\Hust\Desktop\Peripheral_Interface_lab\MIPSfpga_ADT7420_C/ADT7420.c:407
* 			0 	-> characters read are not hex values.
******************************************************************************/
int ADT7420_ConsoleRead(void)
{
	char rx    = 0;
	char c[4]  = "0000";
80001868:	3c023030 	lui	v0,0x3030
C:\Users\Hust\Desktop\Peripheral_Interface_lab\MIPSfpga_ADT7420_C/ADT7420.c:405
*
* @return value -> data converted to hex value
* 			0 	-> characters read are not hex values.
******************************************************************************/
int ADT7420_ConsoleRead(void)
{
8000186c:	27bdffc8 	addiu	sp,sp,-56
C:\Users\Hust\Desktop\Peripheral_Interface_lab\MIPSfpga_ADT7420_C/ADT7420.c:407
	char rx    = 0;
	char c[4]  = "0000";
80001870:	24423030 	addiu	v0,v0,12336
C:\Users\Hust\Desktop\Peripheral_Interface_lab\MIPSfpga_ADT7420_C/ADT7420.c:415
	char cnt   = 0;
	int  value = 0;

	cnt   = 0;
	i     = 0;
	valid = 0;
80001874:	a380800c 	sb	zero,-32756(gp)
C:\Users\Hust\Desktop\Peripheral_Interface_lab\MIPSfpga_ADT7420_C/ADT7420.c:405
*
* @return value -> data converted to hex value
* 			0 	-> characters read are not hex values.
******************************************************************************/
int ADT7420_ConsoleRead(void)
{
80001878:	afb60030 	sw	s6,48(sp)
8000187c:	afb5002c 	sw	s5,44(sp)
80001880:	afb40028 	sw	s4,40(sp)
80001884:	afb30024 	sw	s3,36(sp)
80001888:	afb20020 	sw	s2,32(sp)
8000188c:	afb1001c 	sw	s1,28(sp)
80001890:	afbf0034 	sw	ra,52(sp)
80001894:	afb00018 	sw	s0,24(sp)
C:\Users\Hust\Desktop\Peripheral_Interface_lab\MIPSfpga_ADT7420_C/ADT7420.c:407
	char rx    = 0;
	char c[4]  = "0000";
80001898:	afa20010 	sw	v0,16(sp)
C:\Users\Hust\Desktop\Peripheral_Interface_lab\MIPSfpga_ADT7420_C/ADT7420.c:413
	char *c_ptr;
	int  i     = 0;
	char cnt   = 0;
	int  value = 0;

	cnt   = 0;
8000189c:	00008821 	move	s1,zero
C:\Users\Hust\Desktop\Peripheral_Interface_lab\MIPSfpga_ADT7420_C/ADT7420.c:417
	i     = 0;
	valid = 0;
	value = 0;
	c_ptr = c;
800018a0:	27b40010 	addiu	s4,sp,16
C:\Users\Hust\Desktop\Peripheral_Interface_lab\MIPSfpga_ADT7420_C/ADT7420.c:427
		// Store and display received data
		rx = uart_inbyte();
		uart_print(my_itoa(rx));
		
		// Check if pressed key is [Enter]
		if(rx == 0x0D)
800018a4:	2412000d 	li	s2,13
C:\Users\Hust\Desktop\Peripheral_Interface_lab\MIPSfpga_ADT7420_C/ADT7420.c:431
		{
			i = 5;
		}
		else if(rx == 0x0A)
800018a8:	2413000a 	li	s3,10
C:\Users\Hust\Desktop\Peripheral_Interface_lab\MIPSfpga_ADT7420_C/ADT7420.c:448
		}
		else
		{
			*c_ptr++ = rx;
			cnt = cnt + 1;
			valid = 1;
800018ac:	24160001 	li	s6,1
C:\Users\Hust\Desktop\Peripheral_Interface_lab\MIPSfpga_ADT7420_C/ADT7420.c:450
		}
		if(cnt == 4)
800018b0:	24150004 	li	s5,4
C:\Users\Hust\Desktop\Peripheral_Interface_lab\MIPSfpga_ADT7420_C/ADT7420.c:423

	while(i < 6)
	{
		// Check if data is available on the UART
		// Store and display received data
		rx = uart_inbyte();
800018b4:	0c000421 	jal	80001084 <uart_inbyte>
800018b8:	00000000 	nop
C:\Users\Hust\Desktop\Peripheral_Interface_lab\MIPSfpga_ADT7420_C/ADT7420.c:424
		uart_print(my_itoa(rx));
800018bc:	00402021 	move	a0,v0
800018c0:	0c000467 	jal	8000119c <my_itoa>
800018c4:	00408021 	move	s0,v0
800018c8:	0c000429 	jal	800010a4 <uart_print>
800018cc:	00402021 	move	a0,v0
C:\Users\Hust\Desktop\Peripheral_Interface_lab\MIPSfpga_ADT7420_C/ADT7420.c:435
		}
		else if(rx == 0x0A)
		{
			i = 5;
		}
		else if(((rx > 0x00)&&(rx < 0x30))|| // Not 0 - 9
800018d0:	2602ffff 	addiu	v0,s0,-1
800018d4:	304200ff 	andi	v0,v0,0xff
C:\Users\Hust\Desktop\Peripheral_Interface_lab\MIPSfpga_ADT7420_C/ADT7420.c:427
		// Store and display received data
		rx = uart_inbyte();
		uart_print(my_itoa(rx));
		
		// Check if pressed key is [Enter]
		if(rx == 0x0D)
800018d8:	12120012 	beq	s0,s2,80001924 <ADT7420_ConsoleRead+0xbc>
800018dc:	2c42002f 	sltiu	v0,v0,47
C:\Users\Hust\Desktop\Peripheral_Interface_lab\MIPSfpga_ADT7420_C/ADT7420.c:436
		else if(rx == 0x0A)
		{
			i = 5;
		}
		else if(((rx > 0x00)&&(rx < 0x30))|| // Not 0 - 9
				((rx > 0x39)&&(rx < 0x41))|| // Not A - F
800018e0:	2603ffc6 	addiu	v1,s0,-58
C:\Users\Hust\Desktop\Peripheral_Interface_lab\MIPSfpga_ADT7420_C/ADT7420.c:435
		}
		else if(rx == 0x0A)
		{
			i = 5;
		}
		else if(((rx > 0x00)&&(rx < 0x30))|| // Not 0 - 9
800018e4:	306300ff 	andi	v1,v1,0xff
C:\Users\Hust\Desktop\Peripheral_Interface_lab\MIPSfpga_ADT7420_C/ADT7420.c:431
		// Check if pressed key is [Enter]
		if(rx == 0x0D)
		{
			i = 5;
		}
		else if(rx == 0x0A)
800018e8:	1213000e 	beq	s0,s3,80001924 <ADT7420_ConsoleRead+0xbc>
800018ec:	2c630007 	sltiu	v1,v1,7
C:\Users\Hust\Desktop\Peripheral_Interface_lab\MIPSfpga_ADT7420_C/ADT7420.c:435
		{
			i = 5;
		}
		else if(((rx > 0x00)&&(rx < 0x30))|| // Not 0 - 9
800018f0:	14400008 	bnez	v0,80001914 <ADT7420_ConsoleRead+0xac>
800018f4:	2602ffb9 	addiu	v0,s0,-71
C:\Users\Hust\Desktop\Peripheral_Interface_lab\MIPSfpga_ADT7420_C/ADT7420.c:436 (discriminator 1)
				((rx > 0x39)&&(rx < 0x41))|| // Not A - F
800018f8:	304200ff 	andi	v0,v0,0xff
C:\Users\Hust\Desktop\Peripheral_Interface_lab\MIPSfpga_ADT7420_C/ADT7420.c:435 (discriminator 1)
		}
		else if(rx == 0x0A)
		{
			i = 5;
		}
		else if(((rx > 0x00)&&(rx < 0x30))|| // Not 0 - 9
800018fc:	14600005 	bnez	v1,80001914 <ADT7420_ConsoleRead+0xac>
80001900:	2c42001a 	sltiu	v0,v0,26
C:\Users\Hust\Desktop\Peripheral_Interface_lab\MIPSfpga_ADT7420_C/ADT7420.c:436
				((rx > 0x39)&&(rx < 0x41))|| // Not A - F
80001904:	14400003 	bnez	v0,80001914 <ADT7420_ConsoleRead+0xac>
80001908:	2e030067 	sltiu	v1,s0,103
C:\Users\Hust\Desktop\Peripheral_Interface_lab\MIPSfpga_ADT7420_C/ADT7420.c:437
				((rx > 0x46)&&(rx < 0x61))|| // Not a - f
8000190c:	14600034 	bnez	v1,800019e0 <ADT7420_ConsoleRead+0x178>
80001910:	26220001 	addiu	v0,s1,1
C:\Users\Hust\Desktop\Peripheral_Interface_lab\MIPSfpga_ADT7420_C/ADT7420.c:440
				(rx > 0x66))
		{
			uart_print("\n\rCharacters entered must be HEX values (0 to 9 and A B C D E F)\n\r");
80001914:	3c048000 	lui	a0,0x8000
80001918:	0c000429 	jal	800010a4 <uart_print>
8000191c:	24842eec 	addiu	a0,a0,12012
C:\Users\Hust\Desktop\Peripheral_Interface_lab\MIPSfpga_ADT7420_C/ADT7420.c:442
			i = 6;
			valid = 0;
80001920:	a380800c 	sb	zero,-32756(gp)
C:\Users\Hust\Desktop\Peripheral_Interface_lab\MIPSfpga_ADT7420_C/ADT7420.c:458
		}
		i++;
	}

	// Translate from ASCII to hex
	for(i = 0; i < cnt; i++)
80001924:	1220001a 	beqz	s1,80001990 <ADT7420_ConsoleRead+0x128>
80001928:	9385800c 	lbu	a1,-32756(gp)
8000192c:	27a40010 	addiu	a0,sp,16
80001930:	00918821 	addu	s1,a0,s1
80001934:	00001021 	move	v0,zero
C:\Users\Hust\Desktop\Peripheral_Interface_lab\MIPSfpga_ADT7420_C/ADT7420.c:460
	{
		if(c[i] > 0x60)
80001938:	90830000 	lbu	v1,0(a0)
C:\Users\Hust\Desktop\Peripheral_Interface_lab\MIPSfpga_ADT7420_C/ADT7420.c:462
		{
			value = value * 16 + (c[i] - 0x57);
8000193c:	00024900 	sll	t1,v0,0x4
C:\Users\Hust\Desktop\Peripheral_Interface_lab\MIPSfpga_ADT7420_C/ADT7420.c:460
	}

	// Translate from ASCII to hex
	for(i = 0; i < cnt; i++)
	{
		if(c[i] > 0x60)
80001940:	2c660061 	sltiu	a2,v1,97
C:\Users\Hust\Desktop\Peripheral_Interface_lab\MIPSfpga_ADT7420_C/ADT7420.c:462
		{
			value = value * 16 + (c[i] - 0x57);
80001944:	2468ffa9 	addiu	t0,v1,-87
C:\Users\Hust\Desktop\Peripheral_Interface_lab\MIPSfpga_ADT7420_C/ADT7420.c:460
	}

	// Translate from ASCII to hex
	for(i = 0; i < cnt; i++)
	{
		if(c[i] > 0x60)
80001948:	14c0001e 	bnez	a2,800019c4 <ADT7420_ConsoleRead+0x15c>
8000194c:	2c67003a 	sltiu	a3,v1,58
C:\Users\Hust\Desktop\Peripheral_Interface_lab\MIPSfpga_ADT7420_C/ADT7420.c:462
		{
			value = value * 16 + (c[i] - 0x57);
80001950:	01281021 	addu	v0,t1,t0
80001954:	24840001 	addiu	a0,a0,1
C:\Users\Hust\Desktop\Peripheral_Interface_lab\MIPSfpga_ADT7420_C/ADT7420.c:458 (discriminator 2)
		}
		i++;
	}

	// Translate from ASCII to hex
	for(i = 0; i < cnt; i++)
80001958:	5491fff8 	bnel	a0,s1,8000193c <ADT7420_ConsoleRead+0xd4>
8000195c:	90830000 	lbu	v1,0(a0)
C:\Users\Hust\Desktop\Peripheral_Interface_lab\MIPSfpga_ADT7420_C/ADT7420.c:482
	}
	else
	{
		return 0;
	}
}
80001960:	8fbf0034 	lw	ra,52(sp)
C:\Users\Hust\Desktop\Peripheral_Interface_lab\MIPSfpga_ADT7420_C/ADT7420.c:476
		}
	}

	if(valid == 1)
	{
		return value;
80001964:	38a50001 	xori	a1,a1,0x1
C:\Users\Hust\Desktop\Peripheral_Interface_lab\MIPSfpga_ADT7420_C/ADT7420.c:482
	}
	else
	{
		return 0;
	}
}
80001968:	8fb60030 	lw	s6,48(sp)
8000196c:	8fb5002c 	lw	s5,44(sp)
80001970:	8fb40028 	lw	s4,40(sp)
80001974:	8fb30024 	lw	s3,36(sp)
80001978:	8fb20020 	lw	s2,32(sp)
8000197c:	8fb1001c 	lw	s1,28(sp)
80001980:	8fb00018 	lw	s0,24(sp)
C:\Users\Hust\Desktop\Peripheral_Interface_lab\MIPSfpga_ADT7420_C/ADT7420.c:476
		}
	}

	if(valid == 1)
	{
		return value;
80001984:	0005100b 	movn	v0,zero,a1
C:\Users\Hust\Desktop\Peripheral_Interface_lab\MIPSfpga_ADT7420_C/ADT7420.c:482
	}
	else
	{
		return 0;
	}
}
80001988:	03e00008 	jr	ra
8000198c:	27bd0038 	addiu	sp,sp,56
80001990:	8fbf0034 	lw	ra,52(sp)
C:\Users\Hust\Desktop\Peripheral_Interface_lab\MIPSfpga_ADT7420_C/ADT7420.c:458
		}
		i++;
	}

	// Translate from ASCII to hex
	for(i = 0; i < cnt; i++)
80001994:	00001021 	move	v0,zero
C:\Users\Hust\Desktop\Peripheral_Interface_lab\MIPSfpga_ADT7420_C/ADT7420.c:476
		}
	}

	if(valid == 1)
	{
		return value;
80001998:	38a50001 	xori	a1,a1,0x1
C:\Users\Hust\Desktop\Peripheral_Interface_lab\MIPSfpga_ADT7420_C/ADT7420.c:482
	}
	else
	{
		return 0;
	}
}
8000199c:	8fb60030 	lw	s6,48(sp)
800019a0:	8fb5002c 	lw	s5,44(sp)
800019a4:	8fb40028 	lw	s4,40(sp)
800019a8:	8fb30024 	lw	s3,36(sp)
800019ac:	8fb20020 	lw	s2,32(sp)
800019b0:	8fb1001c 	lw	s1,28(sp)
800019b4:	8fb00018 	lw	s0,24(sp)
C:\Users\Hust\Desktop\Peripheral_Interface_lab\MIPSfpga_ADT7420_C/ADT7420.c:476
		}
	}

	if(valid == 1)
	{
		return value;
800019b8:	0005100b 	movn	v0,zero,a1
C:\Users\Hust\Desktop\Peripheral_Interface_lab\MIPSfpga_ADT7420_C/ADT7420.c:482
	}
	else
	{
		return 0;
	}
}
800019bc:	03e00008 	jr	ra
800019c0:	27bd0038 	addiu	sp,sp,56
C:\Users\Hust\Desktop\Peripheral_Interface_lab\MIPSfpga_ADT7420_C/ADT7420.c:466
		{
			value = value * 16 + (c[i] - 0x57);
		}
		else if(c[i] > 0x39)
		{
			value = value * 16 + (c[i] - 0x37);
800019c4:	00024100 	sll	t0,v0,0x4
800019c8:	2466ffc9 	addiu	a2,v1,-55
C:\Users\Hust\Desktop\Peripheral_Interface_lab\MIPSfpga_ADT7420_C/ADT7420.c:470
		}
		else
		{
			value = value * 16 + (c[i] - 0x30);
800019cc:	2463ffd0 	addiu	v1,v1,-48
C:\Users\Hust\Desktop\Peripheral_Interface_lab\MIPSfpga_ADT7420_C/ADT7420.c:464
	{
		if(c[i] > 0x60)
		{
			value = value * 16 + (c[i] - 0x57);
		}
		else if(c[i] > 0x39)
800019d0:	14e0ffe0 	bnez	a3,80001954 <ADT7420_ConsoleRead+0xec>
800019d4:	01031021 	addu	v0,t0,v1
800019d8:	1000ffde 	b	80001954 <ADT7420_ConsoleRead+0xec>
800019dc:	01061021 	addu	v0,t0,a2
C:\Users\Hust\Desktop\Peripheral_Interface_lab\MIPSfpga_ADT7420_C/ADT7420.c:447
			valid = 0;
		}
		else
		{
			*c_ptr++ = rx;
			cnt = cnt + 1;
800019e0:	305100ff 	andi	s1,v0,0xff
C:\Users\Hust\Desktop\Peripheral_Interface_lab\MIPSfpga_ADT7420_C/ADT7420.c:446
			i = 6;
			valid = 0;
		}
		else
		{
			*c_ptr++ = rx;
800019e4:	a2900000 	sb	s0,0(s4)
C:\Users\Hust\Desktop\Peripheral_Interface_lab\MIPSfpga_ADT7420_C/ADT7420.c:450
			cnt = cnt + 1;
			valid = 1;
		}
		if(cnt == 4)
800019e8:	12350003 	beq	s1,s5,800019f8 <ADT7420_ConsoleRead+0x190>
800019ec:	a396800c 	sb	s6,-32756(gp)
800019f0:	1000ffb0 	b	800018b4 <ADT7420_ConsoleRead+0x4c>
800019f4:	26940001 	addiu	s4,s4,1
800019f8:	1000ffcc 	b	8000192c <ADT7420_ConsoleRead+0xc4>
800019fc:	24050001 	li	a1,1

80001a00 <ADT7420_SetTHigh>:
ADT7420_SetTHigh():
C:\Users\Hust\Desktop\Peripheral_Interface_lab\MIPSfpga_ADT7420_C/ADT7420.c:525
* @param THigh - value to be placed in the register.
*
* @return None.
******************************************************************************/
void ADT7420_SetTHigh(int THigh)
{
80001a00:	27bdffd8 	addiu	sp,sp,-40
80001a04:	afb00020 	sw	s0,32(sp)
80001a08:	00808021 	move	s0,a0
C:\Users\Hust\Desktop\Peripheral_Interface_lab\MIPSfpga_ADT7420_C/ADT7420.c:528
	unsigned char txBuffer[2] = {0x00, 0x00};

	if(ADT7420_GetResolution(0) == 0)
80001a0c:	00002021 	move	a0,zero
C:\Users\Hust\Desktop\Peripheral_Interface_lab\MIPSfpga_ADT7420_C/ADT7420.c:525
* @param THigh - value to be placed in the register.
*
* @return None.
******************************************************************************/
void ADT7420_SetTHigh(int THigh)
{
80001a10:	afbf0024 	sw	ra,36(sp)
C:\Users\Hust\Desktop\Peripheral_Interface_lab\MIPSfpga_ADT7420_C/ADT7420.c:526
	unsigned char txBuffer[2] = {0x00, 0x00};
80001a14:	a3a00018 	sb	zero,24(sp)
C:\Users\Hust\Desktop\Peripheral_Interface_lab\MIPSfpga_ADT7420_C/ADT7420.c:528

	if(ADT7420_GetResolution(0) == 0)
80001a18:	0c000559 	jal	80001564 <ADT7420_GetResolution>
80001a1c:	a3a00019 	sb	zero,25(sp)
80001a20:	1040000e 	beqz	v0,80001a5c <ADT7420_SetTHigh+0x5c>
80001a24:	7e023a00 	ext	v0,s0,0x8,0x8
C:\Users\Hust\Desktop\Peripheral_Interface_lab\MIPSfpga_ADT7420_C/ADT7420.c:535
		txBuffer[0] = (THigh & 0x1FE0) >> 5;
		txBuffer[1] = (THigh & 0x001F) << 3;
	}
	else
	{
		txBuffer[0] = (THigh & 0xFF00) >> 8;
80001a28:	a3a20018 	sb	v0,24(sp)
C:\Users\Hust\Desktop\Peripheral_Interface_lab\MIPSfpga_ADT7420_C/ADT7420.c:539
		txBuffer[1] = THigh & 0x00FF;
	}

	I2C_Write(IIC_BASEADDR, ADT7420_IIC_ADDR, TH_SETP_MSB, 2, txBuffer);
80001a2c:	27a20018 	addiu	v0,sp,24
80001a30:	afa20010 	sw	v0,16(sp)
80001a34:	3c04b0a0 	lui	a0,0xb0a0
80001a38:	2405004b 	li	a1,75
80001a3c:	24060004 	li	a2,4
80001a40:	24070002 	li	a3,2
80001a44:	0c00099c 	jal	80002670 <I2C_Write>
80001a48:	a3b00019 	sb	s0,25(sp)
C:\Users\Hust\Desktop\Peripheral_Interface_lab\MIPSfpga_ADT7420_C/ADT7420.c:540
}
80001a4c:	8fbf0024 	lw	ra,36(sp)
80001a50:	8fb00020 	lw	s0,32(sp)
80001a54:	03e00008 	jr	ra
80001a58:	27bd0028 	addiu	sp,sp,40
C:\Users\Hust\Desktop\Peripheral_Interface_lab\MIPSfpga_ADT7420_C/ADT7420.c:530
{
	unsigned char txBuffer[2] = {0x00, 0x00};

	if(ADT7420_GetResolution(0) == 0)
	{
		txBuffer[0] = (THigh & 0x1FE0) >> 5;
80001a5c:	7e023940 	ext	v0,s0,0x5,0x8
80001a60:	a3a20018 	sb	v0,24(sp)
C:\Users\Hust\Desktop\Peripheral_Interface_lab\MIPSfpga_ADT7420_C/ADT7420.c:539
	{
		txBuffer[0] = (THigh & 0xFF00) >> 8;
		txBuffer[1] = THigh & 0x00FF;
	}

	I2C_Write(IIC_BASEADDR, ADT7420_IIC_ADDR, TH_SETP_MSB, 2, txBuffer);
80001a64:	27a20018 	addiu	v0,sp,24
C:\Users\Hust\Desktop\Peripheral_Interface_lab\MIPSfpga_ADT7420_C/ADT7420.c:531
	unsigned char txBuffer[2] = {0x00, 0x00};

	if(ADT7420_GetResolution(0) == 0)
	{
		txBuffer[0] = (THigh & 0x1FE0) >> 5;
		txBuffer[1] = (THigh & 0x001F) << 3;
80001a68:	001080c0 	sll	s0,s0,0x3
C:\Users\Hust\Desktop\Peripheral_Interface_lab\MIPSfpga_ADT7420_C/ADT7420.c:539
	{
		txBuffer[0] = (THigh & 0xFF00) >> 8;
		txBuffer[1] = THigh & 0x00FF;
	}

	I2C_Write(IIC_BASEADDR, ADT7420_IIC_ADDR, TH_SETP_MSB, 2, txBuffer);
80001a6c:	afa20010 	sw	v0,16(sp)
80001a70:	3c04b0a0 	lui	a0,0xb0a0
80001a74:	2405004b 	li	a1,75
80001a78:	24060004 	li	a2,4
80001a7c:	24070002 	li	a3,2
80001a80:	0c00099c 	jal	80002670 <I2C_Write>
80001a84:	a3b00019 	sb	s0,25(sp)
C:\Users\Hust\Desktop\Peripheral_Interface_lab\MIPSfpga_ADT7420_C/ADT7420.c:540
}
80001a88:	8fbf0024 	lw	ra,36(sp)
80001a8c:	8fb00020 	lw	s0,32(sp)
80001a90:	03e00008 	jr	ra
80001a94:	27bd0028 	addiu	sp,sp,40

80001a98 <ADT7420_DisplaySetTHighMenu>:
ADT7420_DisplaySetTHighMenu():
C:\Users\Hust\Desktop\Peripheral_Interface_lab\MIPSfpga_ADT7420_C/ADT7420.c:495
******************************************************************************/
void ADT7420_DisplaySetTHighMenu(void)
{
	int THigh = 0;

	uart_print("\n\r>Set THigh Menu\n\r");
80001a98:	3c048000 	lui	a0,0x8000
C:\Users\Hust\Desktop\Peripheral_Interface_lab\MIPSfpga_ADT7420_C/ADT7420.c:492
* @param None.
*
* @return None.
******************************************************************************/
void ADT7420_DisplaySetTHighMenu(void)
{
80001a9c:	27bdffe0 	addiu	sp,sp,-32
C:\Users\Hust\Desktop\Peripheral_Interface_lab\MIPSfpga_ADT7420_C/ADT7420.c:495
	int THigh = 0;

	uart_print("\n\r>Set THigh Menu\n\r");
80001aa0:	24842f30 	addiu	a0,a0,12080
C:\Users\Hust\Desktop\Peripheral_Interface_lab\MIPSfpga_ADT7420_C/ADT7420.c:492
* @param None.
*
* @return None.
******************************************************************************/
void ADT7420_DisplaySetTHighMenu(void)
{
80001aa4:	afbf001c 	sw	ra,28(sp)
80001aa8:	afb10018 	sw	s1,24(sp)
C:\Users\Hust\Desktop\Peripheral_Interface_lab\MIPSfpga_ADT7420_C/ADT7420.c:495
	int THigh = 0;

	uart_print("\n\r>Set THigh Menu\n\r");
80001aac:	0c000429 	jal	800010a4 <uart_print>
80001ab0:	afb00014 	sw	s0,20(sp)
C:\Users\Hust\Desktop\Peripheral_Interface_lab\MIPSfpga_ADT7420_C/ADT7420.c:496
	uart_print("-----------------------------------------\n\r");
80001ab4:	3c048000 	lui	a0,0x8000
80001ab8:	0c000429 	jal	800010a4 <uart_print>
80001abc:	24842c38 	addiu	a0,a0,11320
C:\Users\Hust\Desktop\Peripheral_Interface_lab\MIPSfpga_ADT7420_C/ADT7420.c:498

	uart_print("\n\rPlease enter a value between 0x0000 and 0x003C");
80001ac0:	3c048000 	lui	a0,0x8000
80001ac4:	0c000429 	jal	800010a4 <uart_print>
80001ac8:	24842f44 	addiu	a0,a0,12100
C:\Users\Hust\Desktop\Peripheral_Interface_lab\MIPSfpga_ADT7420_C/ADT7420.c:500

	THigh = ADT7420_ConsoleRead();
80001acc:	0c00061a 	jal	80001868 <ADT7420_ConsoleRead>
80001ad0:	00000000 	nop
C:\Users\Hust\Desktop\Peripheral_Interface_lab\MIPSfpga_ADT7420_C/ADT7420.c:502

	while(!((THigh>=0x0000)&(THigh<=0x003C)))
80001ad4:	2c43003d 	sltiu	v1,v0,61
80001ad8:	1460000d 	bnez	v1,80001b10 <ADT7420_DisplaySetTHighMenu+0x78>
80001adc:	3c118000 	lui	s1,0x8000
C:\Users\Hust\Desktop\Peripheral_Interface_lab\MIPSfpga_ADT7420_C/ADT7420.c:505
	{
		uart_print("\n\rValue for THigh must be in the range 0x0000 and 0x003C\n\r");
		uart_print("Please enter a valid value: 0x");
80001ae0:	3c108000 	lui	s0,0x8000
C:\Users\Hust\Desktop\Peripheral_Interface_lab\MIPSfpga_ADT7420_C/ADT7420.c:504

	THigh = ADT7420_ConsoleRead();

	while(!((THigh>=0x0000)&(THigh<=0x003C)))
	{
		uart_print("\n\rValue for THigh must be in the range 0x0000 and 0x003C\n\r");
80001ae4:	26312f78 	addiu	s1,s1,12152
C:\Users\Hust\Desktop\Peripheral_Interface_lab\MIPSfpga_ADT7420_C/ADT7420.c:505
		uart_print("Please enter a valid value: 0x");
80001ae8:	26102fb4 	addiu	s0,s0,12212
C:\Users\Hust\Desktop\Peripheral_Interface_lab\MIPSfpga_ADT7420_C/ADT7420.c:504

	THigh = ADT7420_ConsoleRead();

	while(!((THigh>=0x0000)&(THigh<=0x003C)))
	{
		uart_print("\n\rValue for THigh must be in the range 0x0000 and 0x003C\n\r");
80001aec:	0c000429 	jal	800010a4 <uart_print>
80001af0:	02202021 	move	a0,s1
C:\Users\Hust\Desktop\Peripheral_Interface_lab\MIPSfpga_ADT7420_C/ADT7420.c:505
		uart_print("Please enter a valid value: 0x");
80001af4:	0c000429 	jal	800010a4 <uart_print>
80001af8:	02002021 	move	a0,s0
C:\Users\Hust\Desktop\Peripheral_Interface_lab\MIPSfpga_ADT7420_C/ADT7420.c:506
		THigh = ADT7420_ConsoleRead();
80001afc:	0c00061a 	jal	80001868 <ADT7420_ConsoleRead>
80001b00:	00000000 	nop
C:\Users\Hust\Desktop\Peripheral_Interface_lab\MIPSfpga_ADT7420_C/ADT7420.c:502

	uart_print("\n\rPlease enter a value between 0x0000 and 0x003C");

	THigh = ADT7420_ConsoleRead();

	while(!((THigh>=0x0000)&(THigh<=0x003C)))
80001b04:	2c43003d 	sltiu	v1,v0,61
80001b08:	1060fff8 	beqz	v1,80001aec <ADT7420_DisplaySetTHighMenu+0x54>
80001b0c:	00000000 	nop
C:\Users\Hust\Desktop\Peripheral_Interface_lab\MIPSfpga_ADT7420_C/ADT7420.c:509
		uart_print("\n\rValue for THigh must be in the range 0x0000 and 0x003C\n\r");
		uart_print("Please enter a valid value: 0x");
		THigh = ADT7420_ConsoleRead();
	}

	if(valid == 1)
80001b10:	9384800c 	lbu	a0,-32756(gp)
80001b14:	24030001 	li	v1,1
80001b18:	10830005 	beq	a0,v1,80001b30 <ADT7420_DisplaySetTHighMenu+0x98>
80001b1c:	8fbf001c 	lw	ra,28(sp)
C:\Users\Hust\Desktop\Peripheral_Interface_lab\MIPSfpga_ADT7420_C/ADT7420.c:515
	{
		ADT7420_SetTHigh(THigh);
		rxData = 'm';
		uart_print("\n\r\n\r>Returning to Main Menu...\n\r");
	}
}
80001b20:	8fb10018 	lw	s1,24(sp)
80001b24:	8fb00014 	lw	s0,20(sp)
80001b28:	03e00008 	jr	ra
80001b2c:	27bd0020 	addiu	sp,sp,32
C:\Users\Hust\Desktop\Peripheral_Interface_lab\MIPSfpga_ADT7420_C/ADT7420.c:511
		THigh = ADT7420_ConsoleRead();
	}

	if(valid == 1)
	{
		ADT7420_SetTHigh(THigh);
80001b30:	0c000680 	jal	80001a00 <ADT7420_SetTHigh>
80001b34:	00402021 	move	a0,v0
C:\Users\Hust\Desktop\Peripheral_Interface_lab\MIPSfpga_ADT7420_C/ADT7420.c:515
		rxData = 'm';
		uart_print("\n\r\n\r>Returning to Main Menu...\n\r");
	}
}
80001b38:	8fbf001c 	lw	ra,28(sp)
80001b3c:	8fb10018 	lw	s1,24(sp)
80001b40:	8fb00014 	lw	s0,20(sp)
C:\Users\Hust\Desktop\Peripheral_Interface_lab\MIPSfpga_ADT7420_C/ADT7420.c:513

	if(valid == 1)
	{
		ADT7420_SetTHigh(THigh);
		rxData = 'm';
		uart_print("\n\r\n\r>Returning to Main Menu...\n\r");
80001b44:	3c048000 	lui	a0,0x8000
C:\Users\Hust\Desktop\Peripheral_Interface_lab\MIPSfpga_ADT7420_C/ADT7420.c:512
	}

	if(valid == 1)
	{
		ADT7420_SetTHigh(THigh);
		rxData = 'm';
80001b48:	2402006d 	li	v0,109
C:\Users\Hust\Desktop\Peripheral_Interface_lab\MIPSfpga_ADT7420_C/ADT7420.c:513
		uart_print("\n\r\n\r>Returning to Main Menu...\n\r");
80001b4c:	24842fd4 	addiu	a0,a0,12244
C:\Users\Hust\Desktop\Peripheral_Interface_lab\MIPSfpga_ADT7420_C/ADT7420.c:515
	}
}
80001b50:	27bd0020 	addiu	sp,sp,32
C:\Users\Hust\Desktop\Peripheral_Interface_lab\MIPSfpga_ADT7420_C/ADT7420.c:512
	}

	if(valid == 1)
	{
		ADT7420_SetTHigh(THigh);
		rxData = 'm';
80001b54:	af828008 	sw	v0,-32760(gp)
C:\Users\Hust\Desktop\Peripheral_Interface_lab\MIPSfpga_ADT7420_C/ADT7420.c:513
		uart_print("\n\r\n\r>Returning to Main Menu...\n\r");
80001b58:	08000429 	j	800010a4 <uart_print>
80001b5c:	00000000 	nop

80001b60 <ADT7420_PrintTHigh>:
ADT7420_PrintTHigh():
C:\Users\Hust\Desktop\Peripheral_Interface_lab\MIPSfpga_ADT7420_C/ADT7420.c:550
* @param None.
*
* @return None.
******************************************************************************/
void ADT7420_PrintTHigh(void)
{
80001b60:	27bdffd8 	addiu	sp,sp,-40
C:\Users\Hust\Desktop\Peripheral_Interface_lab\MIPSfpga_ADT7420_C/ADT7420.c:554
	unsigned char rxBuffer[2] = {0x00, 0x00};
	int           val         = 0;

	I2C_Read(IIC_BASEADDR, ADT7420_IIC_ADDR, TH_SETP_MSB, 2, rxBuffer);
80001b64:	27a20018 	addiu	v0,sp,24
80001b68:	3c04b0a0 	lui	a0,0xb0a0
80001b6c:	afa20010 	sw	v0,16(sp)
80001b70:	2405004b 	li	a1,75
80001b74:	24060004 	li	a2,4
80001b78:	24070002 	li	a3,2
C:\Users\Hust\Desktop\Peripheral_Interface_lab\MIPSfpga_ADT7420_C/ADT7420.c:550
* @param None.
*
* @return None.
******************************************************************************/
void ADT7420_PrintTHigh(void)
{
80001b7c:	afbf0024 	sw	ra,36(sp)
80001b80:	afb00020 	sw	s0,32(sp)
C:\Users\Hust\Desktop\Peripheral_Interface_lab\MIPSfpga_ADT7420_C/ADT7420.c:551
	unsigned char rxBuffer[2] = {0x00, 0x00};
80001b84:	a3a00018 	sb	zero,24(sp)
C:\Users\Hust\Desktop\Peripheral_Interface_lab\MIPSfpga_ADT7420_C/ADT7420.c:554
	int           val         = 0;

	I2C_Read(IIC_BASEADDR, ADT7420_IIC_ADDR, TH_SETP_MSB, 2, rxBuffer);
80001b88:	0c000964 	jal	80002590 <I2C_Read>
80001b8c:	a3a00019 	sb	zero,25(sp)
C:\Users\Hust\Desktop\Peripheral_Interface_lab\MIPSfpga_ADT7420_C/ADT7420.c:556

	if(ADT7420_GetResolution(0) == 0)
80001b90:	0c000559 	jal	80001564 <ADT7420_GetResolution>
80001b94:	00002021 	move	a0,zero
80001b98:	1040000d 	beqz	v0,80001bd0 <ADT7420_PrintTHigh+0x70>
80001b9c:	93a20018 	lbu	v0,24(sp)
C:\Users\Hust\Desktop\Peripheral_Interface_lab\MIPSfpga_ADT7420_C/ADT7420.c:559
		val = ( rxBuffer[0] << 5 ) | ( rxBuffer[1] >> 3);
	else
		val = (rxBuffer[0] << 8) | rxBuffer[1];
80001ba0:	93b00019 	lbu	s0,25(sp)
C:\Users\Hust\Desktop\Peripheral_Interface_lab\MIPSfpga_ADT7420_C/ADT7420.c:561

	uart_print("THigh Setpoint ");
80001ba4:	3c048000 	lui	a0,0x8000
C:\Users\Hust\Desktop\Peripheral_Interface_lab\MIPSfpga_ADT7420_C/ADT7420.c:559
	I2C_Read(IIC_BASEADDR, ADT7420_IIC_ADDR, TH_SETP_MSB, 2, rxBuffer);

	if(ADT7420_GetResolution(0) == 0)
		val = ( rxBuffer[0] << 5 ) | ( rxBuffer[1] >> 3);
	else
		val = (rxBuffer[0] << 8) | rxBuffer[1];
80001ba8:	00021200 	sll	v0,v0,0x8
80001bac:	00508025 	or	s0,v0,s0
C:\Users\Hust\Desktop\Peripheral_Interface_lab\MIPSfpga_ADT7420_C/ADT7420.c:561

	uart_print("THigh Setpoint ");
80001bb0:	0c000429 	jal	800010a4 <uart_print>
80001bb4:	24842ff8 	addiu	a0,a0,12280
C:\Users\Hust\Desktop\Peripheral_Interface_lab\MIPSfpga_ADT7420_C/ADT7420.c:562
	Display_Temp(val);
80001bb8:	0c0005fb 	jal	800017ec <Display_Temp>
80001bbc:	7c102620 	seh	a0,s0
C:\Users\Hust\Desktop\Peripheral_Interface_lab\MIPSfpga_ADT7420_C/ADT7420.c:563
}
80001bc0:	8fbf0024 	lw	ra,36(sp)
80001bc4:	8fb00020 	lw	s0,32(sp)
80001bc8:	03e00008 	jr	ra
80001bcc:	27bd0028 	addiu	sp,sp,40
C:\Users\Hust\Desktop\Peripheral_Interface_lab\MIPSfpga_ADT7420_C/ADT7420.c:557
	int           val         = 0;

	I2C_Read(IIC_BASEADDR, ADT7420_IIC_ADDR, TH_SETP_MSB, 2, rxBuffer);

	if(ADT7420_GetResolution(0) == 0)
		val = ( rxBuffer[0] << 5 ) | ( rxBuffer[1] >> 3);
80001bd0:	93a20019 	lbu	v0,25(sp)
80001bd4:	93b00018 	lbu	s0,24(sp)
C:\Users\Hust\Desktop\Peripheral_Interface_lab\MIPSfpga_ADT7420_C/ADT7420.c:561
	else
		val = (rxBuffer[0] << 8) | rxBuffer[1];

	uart_print("THigh Setpoint ");
80001bd8:	3c048000 	lui	a0,0x8000
C:\Users\Hust\Desktop\Peripheral_Interface_lab\MIPSfpga_ADT7420_C/ADT7420.c:557
	int           val         = 0;

	I2C_Read(IIC_BASEADDR, ADT7420_IIC_ADDR, TH_SETP_MSB, 2, rxBuffer);

	if(ADT7420_GetResolution(0) == 0)
		val = ( rxBuffer[0] << 5 ) | ( rxBuffer[1] >> 3);
80001bdc:	000210c2 	srl	v0,v0,0x3
80001be0:	00108140 	sll	s0,s0,0x5
80001be4:	00508025 	or	s0,v0,s0
C:\Users\Hust\Desktop\Peripheral_Interface_lab\MIPSfpga_ADT7420_C/ADT7420.c:561
	else
		val = (rxBuffer[0] << 8) | rxBuffer[1];

	uart_print("THigh Setpoint ");
80001be8:	0c000429 	jal	800010a4 <uart_print>
80001bec:	24842ff8 	addiu	a0,a0,12280
C:\Users\Hust\Desktop\Peripheral_Interface_lab\MIPSfpga_ADT7420_C/ADT7420.c:562
	Display_Temp(val);
80001bf0:	0c0005fb 	jal	800017ec <Display_Temp>
80001bf4:	7c102620 	seh	a0,s0
C:\Users\Hust\Desktop\Peripheral_Interface_lab\MIPSfpga_ADT7420_C/ADT7420.c:563
}
80001bf8:	8fbf0024 	lw	ra,36(sp)
80001bfc:	8fb00020 	lw	s0,32(sp)
80001c00:	03e00008 	jr	ra
80001c04:	27bd0028 	addiu	sp,sp,40

80001c08 <ADT7420_SetTLow>:
ADT7420_SetTLow():
C:\Users\Hust\Desktop\Peripheral_Interface_lab\MIPSfpga_ADT7420_C/ADT7420.c:605
* @param TLow - value to be placed in the register.
*
* @return None.
******************************************************************************/
void ADT7420_SetTLow(int TLow)
{
80001c08:	27bdffd8 	addiu	sp,sp,-40
80001c0c:	afb00020 	sw	s0,32(sp)
80001c10:	00808021 	move	s0,a0
C:\Users\Hust\Desktop\Peripheral_Interface_lab\MIPSfpga_ADT7420_C/ADT7420.c:608
	unsigned char txBuffer[2] = {0x00, 0x00};

	if(ADT7420_GetResolution(0) == 0)
80001c14:	00002021 	move	a0,zero
C:\Users\Hust\Desktop\Peripheral_Interface_lab\MIPSfpga_ADT7420_C/ADT7420.c:605
* @param TLow - value to be placed in the register.
*
* @return None.
******************************************************************************/
void ADT7420_SetTLow(int TLow)
{
80001c18:	afbf0024 	sw	ra,36(sp)
C:\Users\Hust\Desktop\Peripheral_Interface_lab\MIPSfpga_ADT7420_C/ADT7420.c:606
	unsigned char txBuffer[2] = {0x00, 0x00};
80001c1c:	a3a00018 	sb	zero,24(sp)
C:\Users\Hust\Desktop\Peripheral_Interface_lab\MIPSfpga_ADT7420_C/ADT7420.c:608

	if(ADT7420_GetResolution(0) == 0)
80001c20:	0c000559 	jal	80001564 <ADT7420_GetResolution>
80001c24:	a3a00019 	sb	zero,25(sp)
80001c28:	1040000e 	beqz	v0,80001c64 <ADT7420_SetTLow+0x5c>
80001c2c:	7e023a00 	ext	v0,s0,0x8,0x8
C:\Users\Hust\Desktop\Peripheral_Interface_lab\MIPSfpga_ADT7420_C/ADT7420.c:615
		txBuffer[0] = (TLow & 0x1FE0) >> 5;
		txBuffer[1] = (TLow & 0x001F) << 3;
	}
	else
	{
		txBuffer[0] = (TLow & 0xFF00) >> 8;
80001c30:	a3a20018 	sb	v0,24(sp)
C:\Users\Hust\Desktop\Peripheral_Interface_lab\MIPSfpga_ADT7420_C/ADT7420.c:619
		txBuffer[1] = TLow & 0x00FF;
	}

	I2C_Write(IIC_BASEADDR, ADT7420_IIC_ADDR, TL_SETP_MSB, 2, txBuffer);
80001c34:	27a20018 	addiu	v0,sp,24
80001c38:	afa20010 	sw	v0,16(sp)
80001c3c:	3c04b0a0 	lui	a0,0xb0a0
80001c40:	2405004b 	li	a1,75
80001c44:	24060006 	li	a2,6
80001c48:	24070002 	li	a3,2
80001c4c:	0c00099c 	jal	80002670 <I2C_Write>
80001c50:	a3b00019 	sb	s0,25(sp)
C:\Users\Hust\Desktop\Peripheral_Interface_lab\MIPSfpga_ADT7420_C/ADT7420.c:620
}
80001c54:	8fbf0024 	lw	ra,36(sp)
80001c58:	8fb00020 	lw	s0,32(sp)
80001c5c:	03e00008 	jr	ra
80001c60:	27bd0028 	addiu	sp,sp,40
C:\Users\Hust\Desktop\Peripheral_Interface_lab\MIPSfpga_ADT7420_C/ADT7420.c:610
{
	unsigned char txBuffer[2] = {0x00, 0x00};

	if(ADT7420_GetResolution(0) == 0)
	{
		txBuffer[0] = (TLow & 0x1FE0) >> 5;
80001c64:	7e023940 	ext	v0,s0,0x5,0x8
80001c68:	a3a20018 	sb	v0,24(sp)
C:\Users\Hust\Desktop\Peripheral_Interface_lab\MIPSfpga_ADT7420_C/ADT7420.c:619
	{
		txBuffer[0] = (TLow & 0xFF00) >> 8;
		txBuffer[1] = TLow & 0x00FF;
	}

	I2C_Write(IIC_BASEADDR, ADT7420_IIC_ADDR, TL_SETP_MSB, 2, txBuffer);
80001c6c:	27a20018 	addiu	v0,sp,24
C:\Users\Hust\Desktop\Peripheral_Interface_lab\MIPSfpga_ADT7420_C/ADT7420.c:611
	unsigned char txBuffer[2] = {0x00, 0x00};

	if(ADT7420_GetResolution(0) == 0)
	{
		txBuffer[0] = (TLow & 0x1FE0) >> 5;
		txBuffer[1] = (TLow & 0x001F) << 3;
80001c70:	001080c0 	sll	s0,s0,0x3
C:\Users\Hust\Desktop\Peripheral_Interface_lab\MIPSfpga_ADT7420_C/ADT7420.c:619
	{
		txBuffer[0] = (TLow & 0xFF00) >> 8;
		txBuffer[1] = TLow & 0x00FF;
	}

	I2C_Write(IIC_BASEADDR, ADT7420_IIC_ADDR, TL_SETP_MSB, 2, txBuffer);
80001c74:	afa20010 	sw	v0,16(sp)
80001c78:	3c04b0a0 	lui	a0,0xb0a0
80001c7c:	2405004b 	li	a1,75
80001c80:	24060006 	li	a2,6
80001c84:	24070002 	li	a3,2
80001c88:	0c00099c 	jal	80002670 <I2C_Write>
80001c8c:	a3b00019 	sb	s0,25(sp)
C:\Users\Hust\Desktop\Peripheral_Interface_lab\MIPSfpga_ADT7420_C/ADT7420.c:620
}
80001c90:	8fbf0024 	lw	ra,36(sp)
80001c94:	8fb00020 	lw	s0,32(sp)
80001c98:	03e00008 	jr	ra
80001c9c:	27bd0028 	addiu	sp,sp,40

80001ca0 <ADT7420_DisplaySetTLowMenu>:
ADT7420_DisplaySetTLowMenu():
C:\Users\Hust\Desktop\Peripheral_Interface_lab\MIPSfpga_ADT7420_C/ADT7420.c:576
******************************************************************************/
void ADT7420_DisplaySetTLowMenu(void)
{
	int TLow = 0;

	uart_print("\n\r>Set TLow Menu\n\r");
80001ca0:	3c048000 	lui	a0,0x8000
C:\Users\Hust\Desktop\Peripheral_Interface_lab\MIPSfpga_ADT7420_C/ADT7420.c:573
* @param None.
*
* @return None.
******************************************************************************/
void ADT7420_DisplaySetTLowMenu(void)
{
80001ca4:	27bdffe0 	addiu	sp,sp,-32
C:\Users\Hust\Desktop\Peripheral_Interface_lab\MIPSfpga_ADT7420_C/ADT7420.c:576
	int TLow = 0;

	uart_print("\n\r>Set TLow Menu\n\r");
80001ca8:	24843008 	addiu	a0,a0,12296
C:\Users\Hust\Desktop\Peripheral_Interface_lab\MIPSfpga_ADT7420_C/ADT7420.c:573
* @param None.
*
* @return None.
******************************************************************************/
void ADT7420_DisplaySetTLowMenu(void)
{
80001cac:	afbf001c 	sw	ra,28(sp)
80001cb0:	afb10018 	sw	s1,24(sp)
C:\Users\Hust\Desktop\Peripheral_Interface_lab\MIPSfpga_ADT7420_C/ADT7420.c:576
	int TLow = 0;

	uart_print("\n\r>Set TLow Menu\n\r");
80001cb4:	0c000429 	jal	800010a4 <uart_print>
80001cb8:	afb00014 	sw	s0,20(sp)
C:\Users\Hust\Desktop\Peripheral_Interface_lab\MIPSfpga_ADT7420_C/ADT7420.c:577
	uart_print("-----------------------------------------\n\r");
80001cbc:	3c048000 	lui	a0,0x8000
80001cc0:	0c000429 	jal	800010a4 <uart_print>
80001cc4:	24842c38 	addiu	a0,a0,11320
C:\Users\Hust\Desktop\Peripheral_Interface_lab\MIPSfpga_ADT7420_C/ADT7420.c:578
	uart_print("\n\rPlease enter a value between 0x0000 and 0x000A");
80001cc8:	3c048000 	lui	a0,0x8000
80001ccc:	0c000429 	jal	800010a4 <uart_print>
80001cd0:	2484301c 	addiu	a0,a0,12316
C:\Users\Hust\Desktop\Peripheral_Interface_lab\MIPSfpga_ADT7420_C/ADT7420.c:580

	TLow = ADT7420_ConsoleRead();
80001cd4:	0c00061a 	jal	80001868 <ADT7420_ConsoleRead>
80001cd8:	00000000 	nop
C:\Users\Hust\Desktop\Peripheral_Interface_lab\MIPSfpga_ADT7420_C/ADT7420.c:582

	while(!((TLow>=0x0000)&(TLow<=0x000A)))
80001cdc:	2c43000b 	sltiu	v1,v0,11
80001ce0:	1460000d 	bnez	v1,80001d18 <ADT7420_DisplaySetTLowMenu+0x78>
80001ce4:	3c118000 	lui	s1,0x8000
C:\Users\Hust\Desktop\Peripheral_Interface_lab\MIPSfpga_ADT7420_C/ADT7420.c:585
	{
		uart_print("\n\rValue for TLow must be in the range 0x0000 and 0x000A\n\r");
		uart_print("Please enter a valid value: 0x");
80001ce8:	3c108000 	lui	s0,0x8000
C:\Users\Hust\Desktop\Peripheral_Interface_lab\MIPSfpga_ADT7420_C/ADT7420.c:584

	TLow = ADT7420_ConsoleRead();

	while(!((TLow>=0x0000)&(TLow<=0x000A)))
	{
		uart_print("\n\rValue for TLow must be in the range 0x0000 and 0x000A\n\r");
80001cec:	26313050 	addiu	s1,s1,12368
C:\Users\Hust\Desktop\Peripheral_Interface_lab\MIPSfpga_ADT7420_C/ADT7420.c:585
		uart_print("Please enter a valid value: 0x");
80001cf0:	26102fb4 	addiu	s0,s0,12212
C:\Users\Hust\Desktop\Peripheral_Interface_lab\MIPSfpga_ADT7420_C/ADT7420.c:584

	TLow = ADT7420_ConsoleRead();

	while(!((TLow>=0x0000)&(TLow<=0x000A)))
	{
		uart_print("\n\rValue for TLow must be in the range 0x0000 and 0x000A\n\r");
80001cf4:	0c000429 	jal	800010a4 <uart_print>
80001cf8:	02202021 	move	a0,s1
C:\Users\Hust\Desktop\Peripheral_Interface_lab\MIPSfpga_ADT7420_C/ADT7420.c:585
		uart_print("Please enter a valid value: 0x");
80001cfc:	0c000429 	jal	800010a4 <uart_print>
80001d00:	02002021 	move	a0,s0
C:\Users\Hust\Desktop\Peripheral_Interface_lab\MIPSfpga_ADT7420_C/ADT7420.c:586
		TLow = ADT7420_ConsoleRead();
80001d04:	0c00061a 	jal	80001868 <ADT7420_ConsoleRead>
80001d08:	00000000 	nop
C:\Users\Hust\Desktop\Peripheral_Interface_lab\MIPSfpga_ADT7420_C/ADT7420.c:582
	uart_print("-----------------------------------------\n\r");
	uart_print("\n\rPlease enter a value between 0x0000 and 0x000A");

	TLow = ADT7420_ConsoleRead();

	while(!((TLow>=0x0000)&(TLow<=0x000A)))
80001d0c:	2c43000b 	sltiu	v1,v0,11
80001d10:	1060fff8 	beqz	v1,80001cf4 <ADT7420_DisplaySetTLowMenu+0x54>
80001d14:	00000000 	nop
C:\Users\Hust\Desktop\Peripheral_Interface_lab\MIPSfpga_ADT7420_C/ADT7420.c:589
		uart_print("\n\rValue for TLow must be in the range 0x0000 and 0x000A\n\r");
		uart_print("Please enter a valid value: 0x");
		TLow = ADT7420_ConsoleRead();
	}

	if(valid == 1)
80001d18:	9384800c 	lbu	a0,-32756(gp)
80001d1c:	24030001 	li	v1,1
80001d20:	10830005 	beq	a0,v1,80001d38 <ADT7420_DisplaySetTLowMenu+0x98>
80001d24:	8fbf001c 	lw	ra,28(sp)
C:\Users\Hust\Desktop\Peripheral_Interface_lab\MIPSfpga_ADT7420_C/ADT7420.c:595
	{
		ADT7420_SetTLow(TLow);
		rxData = 'm';
		uart_print("\n\r\n\r>Returning to Main Menu...\n\r");
	}
}
80001d28:	8fb10018 	lw	s1,24(sp)
80001d2c:	8fb00014 	lw	s0,20(sp)
80001d30:	03e00008 	jr	ra
80001d34:	27bd0020 	addiu	sp,sp,32
C:\Users\Hust\Desktop\Peripheral_Interface_lab\MIPSfpga_ADT7420_C/ADT7420.c:591
		TLow = ADT7420_ConsoleRead();
	}

	if(valid == 1)
	{
		ADT7420_SetTLow(TLow);
80001d38:	0c000702 	jal	80001c08 <ADT7420_SetTLow>
80001d3c:	00402021 	move	a0,v0
C:\Users\Hust\Desktop\Peripheral_Interface_lab\MIPSfpga_ADT7420_C/ADT7420.c:595
		rxData = 'm';
		uart_print("\n\r\n\r>Returning to Main Menu...\n\r");
	}
}
80001d40:	8fbf001c 	lw	ra,28(sp)
80001d44:	8fb10018 	lw	s1,24(sp)
80001d48:	8fb00014 	lw	s0,20(sp)
C:\Users\Hust\Desktop\Peripheral_Interface_lab\MIPSfpga_ADT7420_C/ADT7420.c:593

	if(valid == 1)
	{
		ADT7420_SetTLow(TLow);
		rxData = 'm';
		uart_print("\n\r\n\r>Returning to Main Menu...\n\r");
80001d4c:	3c048000 	lui	a0,0x8000
C:\Users\Hust\Desktop\Peripheral_Interface_lab\MIPSfpga_ADT7420_C/ADT7420.c:592
	}

	if(valid == 1)
	{
		ADT7420_SetTLow(TLow);
		rxData = 'm';
80001d50:	2402006d 	li	v0,109
C:\Users\Hust\Desktop\Peripheral_Interface_lab\MIPSfpga_ADT7420_C/ADT7420.c:593
		uart_print("\n\r\n\r>Returning to Main Menu...\n\r");
80001d54:	24842fd4 	addiu	a0,a0,12244
C:\Users\Hust\Desktop\Peripheral_Interface_lab\MIPSfpga_ADT7420_C/ADT7420.c:595
	}
}
80001d58:	27bd0020 	addiu	sp,sp,32
C:\Users\Hust\Desktop\Peripheral_Interface_lab\MIPSfpga_ADT7420_C/ADT7420.c:592
	}

	if(valid == 1)
	{
		ADT7420_SetTLow(TLow);
		rxData = 'm';
80001d5c:	af828008 	sw	v0,-32760(gp)
C:\Users\Hust\Desktop\Peripheral_Interface_lab\MIPSfpga_ADT7420_C/ADT7420.c:593
		uart_print("\n\r\n\r>Returning to Main Menu...\n\r");
80001d60:	08000429 	j	800010a4 <uart_print>
80001d64:	00000000 	nop

80001d68 <ADT7420_PrintTLow>:
ADT7420_PrintTLow():
C:\Users\Hust\Desktop\Peripheral_Interface_lab\MIPSfpga_ADT7420_C/ADT7420.c:630
* @param None.
*
* @return None.
******************************************************************************/
void ADT7420_PrintTLow(void)
{
80001d68:	27bdffd8 	addiu	sp,sp,-40
C:\Users\Hust\Desktop\Peripheral_Interface_lab\MIPSfpga_ADT7420_C/ADT7420.c:634
	unsigned char rxBuffer[2] = {0x00, 0x00};
	int           val         = 0;

	I2C_Read(IIC_BASEADDR, ADT7420_IIC_ADDR, TL_SETP_MSB, 2, rxBuffer);
80001d6c:	27a20018 	addiu	v0,sp,24
80001d70:	3c04b0a0 	lui	a0,0xb0a0
80001d74:	afa20010 	sw	v0,16(sp)
80001d78:	2405004b 	li	a1,75
80001d7c:	24060006 	li	a2,6
80001d80:	24070002 	li	a3,2
C:\Users\Hust\Desktop\Peripheral_Interface_lab\MIPSfpga_ADT7420_C/ADT7420.c:630
* @param None.
*
* @return None.
******************************************************************************/
void ADT7420_PrintTLow(void)
{
80001d84:	afbf0024 	sw	ra,36(sp)
80001d88:	afb00020 	sw	s0,32(sp)
C:\Users\Hust\Desktop\Peripheral_Interface_lab\MIPSfpga_ADT7420_C/ADT7420.c:631
	unsigned char rxBuffer[2] = {0x00, 0x00};
80001d8c:	a3a00018 	sb	zero,24(sp)
C:\Users\Hust\Desktop\Peripheral_Interface_lab\MIPSfpga_ADT7420_C/ADT7420.c:634
	int           val         = 0;

	I2C_Read(IIC_BASEADDR, ADT7420_IIC_ADDR, TL_SETP_MSB, 2, rxBuffer);
80001d90:	0c000964 	jal	80002590 <I2C_Read>
80001d94:	a3a00019 	sb	zero,25(sp)
C:\Users\Hust\Desktop\Peripheral_Interface_lab\MIPSfpga_ADT7420_C/ADT7420.c:636

	if(ADT7420_GetResolution(0) == 0)
80001d98:	0c000559 	jal	80001564 <ADT7420_GetResolution>
80001d9c:	00002021 	move	a0,zero
80001da0:	1040000d 	beqz	v0,80001dd8 <ADT7420_PrintTLow+0x70>
80001da4:	93a20018 	lbu	v0,24(sp)
C:\Users\Hust\Desktop\Peripheral_Interface_lab\MIPSfpga_ADT7420_C/ADT7420.c:642
	{
		val = ( rxBuffer[0] << 5 ) | ( rxBuffer[1] >> 3);
	}
	else
	{
		val = (rxBuffer[0] << 8) | rxBuffer[1];
80001da8:	93b00019 	lbu	s0,25(sp)
C:\Users\Hust\Desktop\Peripheral_Interface_lab\MIPSfpga_ADT7420_C/ADT7420.c:645
	}

	uart_print("TLow Setpoint ");
80001dac:	3c048000 	lui	a0,0x8000
C:\Users\Hust\Desktop\Peripheral_Interface_lab\MIPSfpga_ADT7420_C/ADT7420.c:642
	{
		val = ( rxBuffer[0] << 5 ) | ( rxBuffer[1] >> 3);
	}
	else
	{
		val = (rxBuffer[0] << 8) | rxBuffer[1];
80001db0:	00021200 	sll	v0,v0,0x8
80001db4:	00508025 	or	s0,v0,s0
C:\Users\Hust\Desktop\Peripheral_Interface_lab\MIPSfpga_ADT7420_C/ADT7420.c:645
	}

	uart_print("TLow Setpoint ");
80001db8:	0c000429 	jal	800010a4 <uart_print>
80001dbc:	2484308c 	addiu	a0,a0,12428
C:\Users\Hust\Desktop\Peripheral_Interface_lab\MIPSfpga_ADT7420_C/ADT7420.c:646
	Display_Temp(val);
80001dc0:	0c0005fb 	jal	800017ec <Display_Temp>
80001dc4:	7c102620 	seh	a0,s0
C:\Users\Hust\Desktop\Peripheral_Interface_lab\MIPSfpga_ADT7420_C/ADT7420.c:647
}
80001dc8:	8fbf0024 	lw	ra,36(sp)
80001dcc:	8fb00020 	lw	s0,32(sp)
80001dd0:	03e00008 	jr	ra
80001dd4:	27bd0028 	addiu	sp,sp,40
C:\Users\Hust\Desktop\Peripheral_Interface_lab\MIPSfpga_ADT7420_C/ADT7420.c:638

	I2C_Read(IIC_BASEADDR, ADT7420_IIC_ADDR, TL_SETP_MSB, 2, rxBuffer);

	if(ADT7420_GetResolution(0) == 0)
	{
		val = ( rxBuffer[0] << 5 ) | ( rxBuffer[1] >> 3);
80001dd8:	93a20019 	lbu	v0,25(sp)
80001ddc:	93b00018 	lbu	s0,24(sp)
C:\Users\Hust\Desktop\Peripheral_Interface_lab\MIPSfpga_ADT7420_C/ADT7420.c:645
	else
	{
		val = (rxBuffer[0] << 8) | rxBuffer[1];
	}

	uart_print("TLow Setpoint ");
80001de0:	3c048000 	lui	a0,0x8000
C:\Users\Hust\Desktop\Peripheral_Interface_lab\MIPSfpga_ADT7420_C/ADT7420.c:638

	I2C_Read(IIC_BASEADDR, ADT7420_IIC_ADDR, TL_SETP_MSB, 2, rxBuffer);

	if(ADT7420_GetResolution(0) == 0)
	{
		val = ( rxBuffer[0] << 5 ) | ( rxBuffer[1] >> 3);
80001de4:	000210c2 	srl	v0,v0,0x3
80001de8:	00108140 	sll	s0,s0,0x5
80001dec:	00508025 	or	s0,v0,s0
C:\Users\Hust\Desktop\Peripheral_Interface_lab\MIPSfpga_ADT7420_C/ADT7420.c:645
	else
	{
		val = (rxBuffer[0] << 8) | rxBuffer[1];
	}

	uart_print("TLow Setpoint ");
80001df0:	0c000429 	jal	800010a4 <uart_print>
80001df4:	2484308c 	addiu	a0,a0,12428
C:\Users\Hust\Desktop\Peripheral_Interface_lab\MIPSfpga_ADT7420_C/ADT7420.c:646
	Display_Temp(val);
80001df8:	0c0005fb 	jal	800017ec <Display_Temp>
80001dfc:	7c102620 	seh	a0,s0
C:\Users\Hust\Desktop\Peripheral_Interface_lab\MIPSfpga_ADT7420_C/ADT7420.c:647
}
80001e00:	8fbf0024 	lw	ra,36(sp)
80001e04:	8fb00020 	lw	s0,32(sp)
80001e08:	03e00008 	jr	ra
80001e0c:	27bd0028 	addiu	sp,sp,40

80001e10 <ADT7420_SetTCrit>:
ADT7420_SetTCrit():
C:\Users\Hust\Desktop\Peripheral_Interface_lab\MIPSfpga_ADT7420_C/ADT7420.c:657
* @param TCrit - value to be placed in the register.
*
* @return None.
******************************************************************************/
void ADT7420_SetTCrit(int TCrit)
{
80001e10:	27bdffd8 	addiu	sp,sp,-40
80001e14:	afb00020 	sw	s0,32(sp)
80001e18:	00808021 	move	s0,a0
C:\Users\Hust\Desktop\Peripheral_Interface_lab\MIPSfpga_ADT7420_C/ADT7420.c:659
	unsigned char txBuffer[2] = {0x00, 0x00};
	if(ADT7420_GetResolution(0) == 0)
80001e1c:	00002021 	move	a0,zero
C:\Users\Hust\Desktop\Peripheral_Interface_lab\MIPSfpga_ADT7420_C/ADT7420.c:657
* @param TCrit - value to be placed in the register.
*
* @return None.
******************************************************************************/
void ADT7420_SetTCrit(int TCrit)
{
80001e20:	afbf0024 	sw	ra,36(sp)
C:\Users\Hust\Desktop\Peripheral_Interface_lab\MIPSfpga_ADT7420_C/ADT7420.c:658
	unsigned char txBuffer[2] = {0x00, 0x00};
80001e24:	a3a00018 	sb	zero,24(sp)
C:\Users\Hust\Desktop\Peripheral_Interface_lab\MIPSfpga_ADT7420_C/ADT7420.c:659
	if(ADT7420_GetResolution(0) == 0)
80001e28:	0c000559 	jal	80001564 <ADT7420_GetResolution>
80001e2c:	a3a00019 	sb	zero,25(sp)
80001e30:	1040000e 	beqz	v0,80001e6c <ADT7420_SetTCrit+0x5c>
80001e34:	7e023a00 	ext	v0,s0,0x8,0x8
C:\Users\Hust\Desktop\Peripheral_Interface_lab\MIPSfpga_ADT7420_C/ADT7420.c:666
		txBuffer[0] = (TCrit & 0x1FE0) >> 5;
		txBuffer[1] = (TCrit & 0x001F) << 3;
	}
	else
	{
		txBuffer[0] = (TCrit & 0xFF00) >> 8;
80001e38:	a3a20018 	sb	v0,24(sp)
C:\Users\Hust\Desktop\Peripheral_Interface_lab\MIPSfpga_ADT7420_C/ADT7420.c:670
		txBuffer[1] = TCrit & 0x00FF;
	}

	I2C_Write(IIC_BASEADDR, ADT7420_IIC_ADDR, TCRIT_SETP_MSB, 2, txBuffer);
80001e3c:	27a20018 	addiu	v0,sp,24
80001e40:	afa20010 	sw	v0,16(sp)
80001e44:	3c04b0a0 	lui	a0,0xb0a0
80001e48:	2405004b 	li	a1,75
80001e4c:	24060008 	li	a2,8
80001e50:	24070002 	li	a3,2
80001e54:	0c00099c 	jal	80002670 <I2C_Write>
80001e58:	a3b00019 	sb	s0,25(sp)
C:\Users\Hust\Desktop\Peripheral_Interface_lab\MIPSfpga_ADT7420_C/ADT7420.c:671
}
80001e5c:	8fbf0024 	lw	ra,36(sp)
80001e60:	8fb00020 	lw	s0,32(sp)
80001e64:	03e00008 	jr	ra
80001e68:	27bd0028 	addiu	sp,sp,40
C:\Users\Hust\Desktop\Peripheral_Interface_lab\MIPSfpga_ADT7420_C/ADT7420.c:661
void ADT7420_SetTCrit(int TCrit)
{
	unsigned char txBuffer[2] = {0x00, 0x00};
	if(ADT7420_GetResolution(0) == 0)
	{
		txBuffer[0] = (TCrit & 0x1FE0) >> 5;
80001e6c:	7e023940 	ext	v0,s0,0x5,0x8
80001e70:	a3a20018 	sb	v0,24(sp)
C:\Users\Hust\Desktop\Peripheral_Interface_lab\MIPSfpga_ADT7420_C/ADT7420.c:670
	{
		txBuffer[0] = (TCrit & 0xFF00) >> 8;
		txBuffer[1] = TCrit & 0x00FF;
	}

	I2C_Write(IIC_BASEADDR, ADT7420_IIC_ADDR, TCRIT_SETP_MSB, 2, txBuffer);
80001e74:	27a20018 	addiu	v0,sp,24
C:\Users\Hust\Desktop\Peripheral_Interface_lab\MIPSfpga_ADT7420_C/ADT7420.c:662
{
	unsigned char txBuffer[2] = {0x00, 0x00};
	if(ADT7420_GetResolution(0) == 0)
	{
		txBuffer[0] = (TCrit & 0x1FE0) >> 5;
		txBuffer[1] = (TCrit & 0x001F) << 3;
80001e78:	001080c0 	sll	s0,s0,0x3
C:\Users\Hust\Desktop\Peripheral_Interface_lab\MIPSfpga_ADT7420_C/ADT7420.c:670
	{
		txBuffer[0] = (TCrit & 0xFF00) >> 8;
		txBuffer[1] = TCrit & 0x00FF;
	}

	I2C_Write(IIC_BASEADDR, ADT7420_IIC_ADDR, TCRIT_SETP_MSB, 2, txBuffer);
80001e7c:	afa20010 	sw	v0,16(sp)
80001e80:	3c04b0a0 	lui	a0,0xb0a0
80001e84:	2405004b 	li	a1,75
80001e88:	24060008 	li	a2,8
80001e8c:	24070002 	li	a3,2
80001e90:	0c00099c 	jal	80002670 <I2C_Write>
80001e94:	a3b00019 	sb	s0,25(sp)
C:\Users\Hust\Desktop\Peripheral_Interface_lab\MIPSfpga_ADT7420_C/ADT7420.c:671
}
80001e98:	8fbf0024 	lw	ra,36(sp)
80001e9c:	8fb00020 	lw	s0,32(sp)
80001ea0:	03e00008 	jr	ra
80001ea4:	27bd0028 	addiu	sp,sp,40

80001ea8 <ADT7420_DisplaySetTCritMenu>:
ADT7420_DisplaySetTCritMenu():
C:\Users\Hust\Desktop\Peripheral_Interface_lab\MIPSfpga_ADT7420_C/ADT7420.c:685

void ADT7420_DisplaySetTCritMenu(void)
{
	int TCrit = 0;

	uart_print("\n\r>Set TCrit Menu\n\r");
80001ea8:	3c048000 	lui	a0,0x8000
C:\Users\Hust\Desktop\Peripheral_Interface_lab\MIPSfpga_ADT7420_C/ADT7420.c:682
*
* @return None.
******************************************************************************/

void ADT7420_DisplaySetTCritMenu(void)
{
80001eac:	27bdffe0 	addiu	sp,sp,-32
C:\Users\Hust\Desktop\Peripheral_Interface_lab\MIPSfpga_ADT7420_C/ADT7420.c:685
	int TCrit = 0;

	uart_print("\n\r>Set TCrit Menu\n\r");
80001eb0:	2484309c 	addiu	a0,a0,12444
C:\Users\Hust\Desktop\Peripheral_Interface_lab\MIPSfpga_ADT7420_C/ADT7420.c:682
*
* @return None.
******************************************************************************/

void ADT7420_DisplaySetTCritMenu(void)
{
80001eb4:	afbf001c 	sw	ra,28(sp)
80001eb8:	afb10018 	sw	s1,24(sp)
C:\Users\Hust\Desktop\Peripheral_Interface_lab\MIPSfpga_ADT7420_C/ADT7420.c:685
	int TCrit = 0;

	uart_print("\n\r>Set TCrit Menu\n\r");
80001ebc:	0c000429 	jal	800010a4 <uart_print>
80001ec0:	afb00014 	sw	s0,20(sp)
C:\Users\Hust\Desktop\Peripheral_Interface_lab\MIPSfpga_ADT7420_C/ADT7420.c:686
	uart_print("-----------------------------------------\n\r");
80001ec4:	3c048000 	lui	a0,0x8000
80001ec8:	0c000429 	jal	800010a4 <uart_print>
80001ecc:	24842c38 	addiu	a0,a0,11320
C:\Users\Hust\Desktop\Peripheral_Interface_lab\MIPSfpga_ADT7420_C/ADT7420.c:687
	uart_print("\n\rPlease enter a value between 0x0000 and 0x0064");
80001ed0:	3c048000 	lui	a0,0x8000
80001ed4:	0c000429 	jal	800010a4 <uart_print>
80001ed8:	248430b0 	addiu	a0,a0,12464
C:\Users\Hust\Desktop\Peripheral_Interface_lab\MIPSfpga_ADT7420_C/ADT7420.c:689

	TCrit = ADT7420_ConsoleRead();
80001edc:	0c00061a 	jal	80001868 <ADT7420_ConsoleRead>
80001ee0:	00000000 	nop
C:\Users\Hust\Desktop\Peripheral_Interface_lab\MIPSfpga_ADT7420_C/ADT7420.c:691

	while(!((TCrit>=0x0000)&(TCrit<=0x0064)))
80001ee4:	2c430065 	sltiu	v1,v0,101
80001ee8:	1460000d 	bnez	v1,80001f20 <ADT7420_DisplaySetTCritMenu+0x78>
80001eec:	3c118000 	lui	s1,0x8000
C:\Users\Hust\Desktop\Peripheral_Interface_lab\MIPSfpga_ADT7420_C/ADT7420.c:694
	{
		uart_print("\n\rValue for TCrit must be in the range 0x0000 and 0x0064\n\r");
		uart_print("Please enter a valid value: 0x");
80001ef0:	3c108000 	lui	s0,0x8000
C:\Users\Hust\Desktop\Peripheral_Interface_lab\MIPSfpga_ADT7420_C/ADT7420.c:693

	TCrit = ADT7420_ConsoleRead();

	while(!((TCrit>=0x0000)&(TCrit<=0x0064)))
	{
		uart_print("\n\rValue for TCrit must be in the range 0x0000 and 0x0064\n\r");
80001ef4:	263130e4 	addiu	s1,s1,12516
C:\Users\Hust\Desktop\Peripheral_Interface_lab\MIPSfpga_ADT7420_C/ADT7420.c:694
		uart_print("Please enter a valid value: 0x");
80001ef8:	26102fb4 	addiu	s0,s0,12212
C:\Users\Hust\Desktop\Peripheral_Interface_lab\MIPSfpga_ADT7420_C/ADT7420.c:693

	TCrit = ADT7420_ConsoleRead();

	while(!((TCrit>=0x0000)&(TCrit<=0x0064)))
	{
		uart_print("\n\rValue for TCrit must be in the range 0x0000 and 0x0064\n\r");
80001efc:	0c000429 	jal	800010a4 <uart_print>
80001f00:	02202021 	move	a0,s1
C:\Users\Hust\Desktop\Peripheral_Interface_lab\MIPSfpga_ADT7420_C/ADT7420.c:694
		uart_print("Please enter a valid value: 0x");
80001f04:	0c000429 	jal	800010a4 <uart_print>
80001f08:	02002021 	move	a0,s0
C:\Users\Hust\Desktop\Peripheral_Interface_lab\MIPSfpga_ADT7420_C/ADT7420.c:695
		TCrit = ADT7420_ConsoleRead();
80001f0c:	0c00061a 	jal	80001868 <ADT7420_ConsoleRead>
80001f10:	00000000 	nop
C:\Users\Hust\Desktop\Peripheral_Interface_lab\MIPSfpga_ADT7420_C/ADT7420.c:691
	uart_print("-----------------------------------------\n\r");
	uart_print("\n\rPlease enter a value between 0x0000 and 0x0064");

	TCrit = ADT7420_ConsoleRead();

	while(!((TCrit>=0x0000)&(TCrit<=0x0064)))
80001f14:	2c430065 	sltiu	v1,v0,101
80001f18:	1060fff8 	beqz	v1,80001efc <ADT7420_DisplaySetTCritMenu+0x54>
80001f1c:	00000000 	nop
C:\Users\Hust\Desktop\Peripheral_Interface_lab\MIPSfpga_ADT7420_C/ADT7420.c:698
		uart_print("\n\rValue for TCrit must be in the range 0x0000 and 0x0064\n\r");
		uart_print("Please enter a valid value: 0x");
		TCrit = ADT7420_ConsoleRead();
	}

	if(valid == 1)
80001f20:	9384800c 	lbu	a0,-32756(gp)
80001f24:	24030001 	li	v1,1
80001f28:	10830005 	beq	a0,v1,80001f40 <ADT7420_DisplaySetTCritMenu+0x98>
80001f2c:	8fbf001c 	lw	ra,28(sp)
C:\Users\Hust\Desktop\Peripheral_Interface_lab\MIPSfpga_ADT7420_C/ADT7420.c:704
	{
		ADT7420_SetTCrit(TCrit);
		rxData = 'm';
		uart_print("\n\r\n\r>Returning to Main Menu...\n\r");
	}
}
80001f30:	8fb10018 	lw	s1,24(sp)
80001f34:	8fb00014 	lw	s0,20(sp)
80001f38:	03e00008 	jr	ra
80001f3c:	27bd0020 	addiu	sp,sp,32
C:\Users\Hust\Desktop\Peripheral_Interface_lab\MIPSfpga_ADT7420_C/ADT7420.c:700
		TCrit = ADT7420_ConsoleRead();
	}

	if(valid == 1)
	{
		ADT7420_SetTCrit(TCrit);
80001f40:	0c000784 	jal	80001e10 <ADT7420_SetTCrit>
80001f44:	00402021 	move	a0,v0
C:\Users\Hust\Desktop\Peripheral_Interface_lab\MIPSfpga_ADT7420_C/ADT7420.c:704
		rxData = 'm';
		uart_print("\n\r\n\r>Returning to Main Menu...\n\r");
	}
}
80001f48:	8fbf001c 	lw	ra,28(sp)
80001f4c:	8fb10018 	lw	s1,24(sp)
80001f50:	8fb00014 	lw	s0,20(sp)
C:\Users\Hust\Desktop\Peripheral_Interface_lab\MIPSfpga_ADT7420_C/ADT7420.c:702

	if(valid == 1)
	{
		ADT7420_SetTCrit(TCrit);
		rxData = 'm';
		uart_print("\n\r\n\r>Returning to Main Menu...\n\r");
80001f54:	3c048000 	lui	a0,0x8000
C:\Users\Hust\Desktop\Peripheral_Interface_lab\MIPSfpga_ADT7420_C/ADT7420.c:701
	}

	if(valid == 1)
	{
		ADT7420_SetTCrit(TCrit);
		rxData = 'm';
80001f58:	2402006d 	li	v0,109
C:\Users\Hust\Desktop\Peripheral_Interface_lab\MIPSfpga_ADT7420_C/ADT7420.c:702
		uart_print("\n\r\n\r>Returning to Main Menu...\n\r");
80001f5c:	24842fd4 	addiu	a0,a0,12244
C:\Users\Hust\Desktop\Peripheral_Interface_lab\MIPSfpga_ADT7420_C/ADT7420.c:704
	}
}
80001f60:	27bd0020 	addiu	sp,sp,32
C:\Users\Hust\Desktop\Peripheral_Interface_lab\MIPSfpga_ADT7420_C/ADT7420.c:701
	}

	if(valid == 1)
	{
		ADT7420_SetTCrit(TCrit);
		rxData = 'm';
80001f64:	af828008 	sw	v0,-32760(gp)
C:\Users\Hust\Desktop\Peripheral_Interface_lab\MIPSfpga_ADT7420_C/ADT7420.c:702
		uart_print("\n\r\n\r>Returning to Main Menu...\n\r");
80001f68:	08000429 	j	800010a4 <uart_print>
80001f6c:	00000000 	nop

80001f70 <ADT7420_PrintTCrit>:
ADT7420_PrintTCrit():
C:\Users\Hust\Desktop\Peripheral_Interface_lab\MIPSfpga_ADT7420_C/ADT7420.c:714
* @param None.
*
* @return None.
******************************************************************************/
void ADT7420_PrintTCrit(void)
{
80001f70:	27bdffd8 	addiu	sp,sp,-40
C:\Users\Hust\Desktop\Peripheral_Interface_lab\MIPSfpga_ADT7420_C/ADT7420.c:718
	unsigned char rxBuffer[2] = {0x00, 0x00};
	int           val         = 0;

	I2C_Read(IIC_BASEADDR, ADT7420_IIC_ADDR, TCRIT_SETP_MSB, 2, rxBuffer);
80001f74:	27a20018 	addiu	v0,sp,24
80001f78:	3c04b0a0 	lui	a0,0xb0a0
80001f7c:	afa20010 	sw	v0,16(sp)
80001f80:	2405004b 	li	a1,75
80001f84:	24060008 	li	a2,8
80001f88:	24070002 	li	a3,2
C:\Users\Hust\Desktop\Peripheral_Interface_lab\MIPSfpga_ADT7420_C/ADT7420.c:714
* @param None.
*
* @return None.
******************************************************************************/
void ADT7420_PrintTCrit(void)
{
80001f8c:	afbf0024 	sw	ra,36(sp)
80001f90:	afb00020 	sw	s0,32(sp)
C:\Users\Hust\Desktop\Peripheral_Interface_lab\MIPSfpga_ADT7420_C/ADT7420.c:715
	unsigned char rxBuffer[2] = {0x00, 0x00};
80001f94:	a3a00018 	sb	zero,24(sp)
C:\Users\Hust\Desktop\Peripheral_Interface_lab\MIPSfpga_ADT7420_C/ADT7420.c:718
	int           val         = 0;

	I2C_Read(IIC_BASEADDR, ADT7420_IIC_ADDR, TCRIT_SETP_MSB, 2, rxBuffer);
80001f98:	0c000964 	jal	80002590 <I2C_Read>
80001f9c:	a3a00019 	sb	zero,25(sp)
C:\Users\Hust\Desktop\Peripheral_Interface_lab\MIPSfpga_ADT7420_C/ADT7420.c:720

	if(ADT7420_GetResolution(0) == 0)
80001fa0:	0c000559 	jal	80001564 <ADT7420_GetResolution>
80001fa4:	00002021 	move	a0,zero
80001fa8:	1040000d 	beqz	v0,80001fe0 <ADT7420_PrintTCrit+0x70>
80001fac:	93a20018 	lbu	v0,24(sp)
C:\Users\Hust\Desktop\Peripheral_Interface_lab\MIPSfpga_ADT7420_C/ADT7420.c:726
	{
		val = ( rxBuffer[0] << 5 ) | ( rxBuffer[1] >> 3);
	}
	else
	{
		val = (rxBuffer[0] << 8) | rxBuffer[1];
80001fb0:	93b00019 	lbu	s0,25(sp)
C:\Users\Hust\Desktop\Peripheral_Interface_lab\MIPSfpga_ADT7420_C/ADT7420.c:729
	}

	uart_print("TCrit Setpoint ");
80001fb4:	3c048000 	lui	a0,0x8000
C:\Users\Hust\Desktop\Peripheral_Interface_lab\MIPSfpga_ADT7420_C/ADT7420.c:726
	{
		val = ( rxBuffer[0] << 5 ) | ( rxBuffer[1] >> 3);
	}
	else
	{
		val = (rxBuffer[0] << 8) | rxBuffer[1];
80001fb8:	00021200 	sll	v0,v0,0x8
80001fbc:	00508025 	or	s0,v0,s0
C:\Users\Hust\Desktop\Peripheral_Interface_lab\MIPSfpga_ADT7420_C/ADT7420.c:729
	}

	uart_print("TCrit Setpoint ");
80001fc0:	0c000429 	jal	800010a4 <uart_print>
80001fc4:	24843120 	addiu	a0,a0,12576
C:\Users\Hust\Desktop\Peripheral_Interface_lab\MIPSfpga_ADT7420_C/ADT7420.c:730
	Display_Temp(val);
80001fc8:	0c0005fb 	jal	800017ec <Display_Temp>
80001fcc:	7c102620 	seh	a0,s0
C:\Users\Hust\Desktop\Peripheral_Interface_lab\MIPSfpga_ADT7420_C/ADT7420.c:731
}
80001fd0:	8fbf0024 	lw	ra,36(sp)
80001fd4:	8fb00020 	lw	s0,32(sp)
80001fd8:	03e00008 	jr	ra
80001fdc:	27bd0028 	addiu	sp,sp,40
C:\Users\Hust\Desktop\Peripheral_Interface_lab\MIPSfpga_ADT7420_C/ADT7420.c:722

	I2C_Read(IIC_BASEADDR, ADT7420_IIC_ADDR, TCRIT_SETP_MSB, 2, rxBuffer);

	if(ADT7420_GetResolution(0) == 0)
	{
		val = ( rxBuffer[0] << 5 ) | ( rxBuffer[1] >> 3);
80001fe0:	93a20019 	lbu	v0,25(sp)
80001fe4:	93b00018 	lbu	s0,24(sp)
C:\Users\Hust\Desktop\Peripheral_Interface_lab\MIPSfpga_ADT7420_C/ADT7420.c:729
	else
	{
		val = (rxBuffer[0] << 8) | rxBuffer[1];
	}

	uart_print("TCrit Setpoint ");
80001fe8:	3c048000 	lui	a0,0x8000
C:\Users\Hust\Desktop\Peripheral_Interface_lab\MIPSfpga_ADT7420_C/ADT7420.c:722

	I2C_Read(IIC_BASEADDR, ADT7420_IIC_ADDR, TCRIT_SETP_MSB, 2, rxBuffer);

	if(ADT7420_GetResolution(0) == 0)
	{
		val = ( rxBuffer[0] << 5 ) | ( rxBuffer[1] >> 3);
80001fec:	000210c2 	srl	v0,v0,0x3
80001ff0:	00108140 	sll	s0,s0,0x5
80001ff4:	00508025 	or	s0,v0,s0
C:\Users\Hust\Desktop\Peripheral_Interface_lab\MIPSfpga_ADT7420_C/ADT7420.c:729
	else
	{
		val = (rxBuffer[0] << 8) | rxBuffer[1];
	}

	uart_print("TCrit Setpoint ");
80001ff8:	0c000429 	jal	800010a4 <uart_print>
80001ffc:	24843120 	addiu	a0,a0,12576
C:\Users\Hust\Desktop\Peripheral_Interface_lab\MIPSfpga_ADT7420_C/ADT7420.c:730
	Display_Temp(val);
80002000:	0c0005fb 	jal	800017ec <Display_Temp>
80002004:	7c102620 	seh	a0,s0
C:\Users\Hust\Desktop\Peripheral_Interface_lab\MIPSfpga_ADT7420_C/ADT7420.c:731
}
80002008:	8fbf0024 	lw	ra,36(sp)
8000200c:	8fb00020 	lw	s0,32(sp)
80002010:	03e00008 	jr	ra
80002014:	27bd0028 	addiu	sp,sp,40

80002018 <ADT7420_SetHysteresis>:
ADT7420_SetHysteresis():
C:\Users\Hust\Desktop\Peripheral_Interface_lab\MIPSfpga_ADT7420_C/ADT7420.c:773
* @param THyst - value from 0x0000 to 0x000F to be placed in the register.
*
* @return None.
******************************************************************************/
void ADT7420_SetHysteresis(int THyst)
{
80002018:	27bdffd8 	addiu	sp,sp,-40
C:\Users\Hust\Desktop\Peripheral_Interface_lab\MIPSfpga_ADT7420_C/ADT7420.c:776
	unsigned char txBuffer[1] = {0x00};
	txBuffer[0] = THyst & 0x0F;
	I2C_Write(IIC_BASEADDR, ADT7420_IIC_ADDR, T_HYST_SETP, 1, txBuffer);
8000201c:	27a30018 	addiu	v1,sp,24
C:\Users\Hust\Desktop\Peripheral_Interface_lab\MIPSfpga_ADT7420_C/ADT7420.c:775
* @return None.
******************************************************************************/
void ADT7420_SetHysteresis(int THyst)
{
	unsigned char txBuffer[1] = {0x00};
	txBuffer[0] = THyst & 0x0F;
80002020:	3082000f 	andi	v0,a0,0xf
C:\Users\Hust\Desktop\Peripheral_Interface_lab\MIPSfpga_ADT7420_C/ADT7420.c:776
	I2C_Write(IIC_BASEADDR, ADT7420_IIC_ADDR, T_HYST_SETP, 1, txBuffer);
80002024:	afa30010 	sw	v1,16(sp)
80002028:	3c04b0a0 	lui	a0,0xb0a0
8000202c:	2405004b 	li	a1,75
80002030:	2406000a 	li	a2,10
80002034:	24070001 	li	a3,1
C:\Users\Hust\Desktop\Peripheral_Interface_lab\MIPSfpga_ADT7420_C/ADT7420.c:773
* @param THyst - value from 0x0000 to 0x000F to be placed in the register.
*
* @return None.
******************************************************************************/
void ADT7420_SetHysteresis(int THyst)
{
80002038:	afbf0024 	sw	ra,36(sp)
C:\Users\Hust\Desktop\Peripheral_Interface_lab\MIPSfpga_ADT7420_C/ADT7420.c:776
	unsigned char txBuffer[1] = {0x00};
	txBuffer[0] = THyst & 0x0F;
	I2C_Write(IIC_BASEADDR, ADT7420_IIC_ADDR, T_HYST_SETP, 1, txBuffer);
8000203c:	0c00099c 	jal	80002670 <I2C_Write>
80002040:	a3a20018 	sb	v0,24(sp)
C:\Users\Hust\Desktop\Peripheral_Interface_lab\MIPSfpga_ADT7420_C/ADT7420.c:777
}
80002044:	8fbf0024 	lw	ra,36(sp)
80002048:	03e00008 	jr	ra
8000204c:	27bd0028 	addiu	sp,sp,40

80002050 <ADT7420_DisplaySetTHystMenu>:
ADT7420_DisplaySetTHystMenu():
C:\Users\Hust\Desktop\Peripheral_Interface_lab\MIPSfpga_ADT7420_C/ADT7420.c:744
******************************************************************************/
void ADT7420_DisplaySetTHystMenu(void)
{
	int THyst = 0;

	uart_print("\n\r>Set THyst Menu\n\r");
80002050:	3c048000 	lui	a0,0x8000
C:\Users\Hust\Desktop\Peripheral_Interface_lab\MIPSfpga_ADT7420_C/ADT7420.c:741
* @param None.
*
* @return None.
******************************************************************************/
void ADT7420_DisplaySetTHystMenu(void)
{
80002054:	27bdffe0 	addiu	sp,sp,-32
C:\Users\Hust\Desktop\Peripheral_Interface_lab\MIPSfpga_ADT7420_C/ADT7420.c:744
	int THyst = 0;

	uart_print("\n\r>Set THyst Menu\n\r");
80002058:	24843130 	addiu	a0,a0,12592
C:\Users\Hust\Desktop\Peripheral_Interface_lab\MIPSfpga_ADT7420_C/ADT7420.c:741
* @param None.
*
* @return None.
******************************************************************************/
void ADT7420_DisplaySetTHystMenu(void)
{
8000205c:	afbf001c 	sw	ra,28(sp)
80002060:	afb10018 	sw	s1,24(sp)
C:\Users\Hust\Desktop\Peripheral_Interface_lab\MIPSfpga_ADT7420_C/ADT7420.c:744
	int THyst = 0;

	uart_print("\n\r>Set THyst Menu\n\r");
80002064:	0c000429 	jal	800010a4 <uart_print>
80002068:	afb00014 	sw	s0,20(sp)
C:\Users\Hust\Desktop\Peripheral_Interface_lab\MIPSfpga_ADT7420_C/ADT7420.c:745
	uart_print("-----------------------------------------\n\r");
8000206c:	3c048000 	lui	a0,0x8000
80002070:	0c000429 	jal	800010a4 <uart_print>
80002074:	24842c38 	addiu	a0,a0,11320
C:\Users\Hust\Desktop\Peripheral_Interface_lab\MIPSfpga_ADT7420_C/ADT7420.c:746
	uart_print("Enter a value from 0x0000 to 0x000F: 0x");
80002078:	3c048000 	lui	a0,0x8000
8000207c:	0c000429 	jal	800010a4 <uart_print>
80002080:	24843144 	addiu	a0,a0,12612
C:\Users\Hust\Desktop\Peripheral_Interface_lab\MIPSfpga_ADT7420_C/ADT7420.c:748

	THyst = ADT7420_ConsoleRead();
80002084:	0c00061a 	jal	80001868 <ADT7420_ConsoleRead>
80002088:	00000000 	nop
C:\Users\Hust\Desktop\Peripheral_Interface_lab\MIPSfpga_ADT7420_C/ADT7420.c:750

	while(!((THyst>=0)&(THyst<16)))
8000208c:	2c430010 	sltiu	v1,v0,16
80002090:	1460000d 	bnez	v1,800020c8 <ADT7420_DisplaySetTHystMenu+0x78>
80002094:	3c118000 	lui	s1,0x8000
C:\Users\Hust\Desktop\Peripheral_Interface_lab\MIPSfpga_ADT7420_C/ADT7420.c:753
	{
		uart_print("\n\rValue for THyst must be in the range 0 C to 15 C\n\r");
		uart_print("Please enter a valid value: 0x");
80002098:	3c108000 	lui	s0,0x8000
C:\Users\Hust\Desktop\Peripheral_Interface_lab\MIPSfpga_ADT7420_C/ADT7420.c:752

	THyst = ADT7420_ConsoleRead();

	while(!((THyst>=0)&(THyst<16)))
	{
		uart_print("\n\rValue for THyst must be in the range 0 C to 15 C\n\r");
8000209c:	2631316c 	addiu	s1,s1,12652
C:\Users\Hust\Desktop\Peripheral_Interface_lab\MIPSfpga_ADT7420_C/ADT7420.c:753
		uart_print("Please enter a valid value: 0x");
800020a0:	26102fb4 	addiu	s0,s0,12212
C:\Users\Hust\Desktop\Peripheral_Interface_lab\MIPSfpga_ADT7420_C/ADT7420.c:752

	THyst = ADT7420_ConsoleRead();

	while(!((THyst>=0)&(THyst<16)))
	{
		uart_print("\n\rValue for THyst must be in the range 0 C to 15 C\n\r");
800020a4:	0c000429 	jal	800010a4 <uart_print>
800020a8:	02202021 	move	a0,s1
C:\Users\Hust\Desktop\Peripheral_Interface_lab\MIPSfpga_ADT7420_C/ADT7420.c:753
		uart_print("Please enter a valid value: 0x");
800020ac:	0c000429 	jal	800010a4 <uart_print>
800020b0:	02002021 	move	a0,s0
C:\Users\Hust\Desktop\Peripheral_Interface_lab\MIPSfpga_ADT7420_C/ADT7420.c:754
		THyst = ADT7420_ConsoleRead();
800020b4:	0c00061a 	jal	80001868 <ADT7420_ConsoleRead>
800020b8:	00000000 	nop
C:\Users\Hust\Desktop\Peripheral_Interface_lab\MIPSfpga_ADT7420_C/ADT7420.c:750
	uart_print("-----------------------------------------\n\r");
	uart_print("Enter a value from 0x0000 to 0x000F: 0x");

	THyst = ADT7420_ConsoleRead();

	while(!((THyst>=0)&(THyst<16)))
800020bc:	2c430010 	sltiu	v1,v0,16
800020c0:	1060fff8 	beqz	v1,800020a4 <ADT7420_DisplaySetTHystMenu+0x54>
800020c4:	00000000 	nop
C:\Users\Hust\Desktop\Peripheral_Interface_lab\MIPSfpga_ADT7420_C/ADT7420.c:757
		uart_print("\n\rValue for THyst must be in the range 0 C to 15 C\n\r");
		uart_print("Please enter a valid value: 0x");
		THyst = ADT7420_ConsoleRead();
	}

	if(valid == 1)
800020c8:	9384800c 	lbu	a0,-32756(gp)
800020cc:	24030001 	li	v1,1
800020d0:	10830005 	beq	a0,v1,800020e8 <ADT7420_DisplaySetTHystMenu+0x98>
800020d4:	8fbf001c 	lw	ra,28(sp)
C:\Users\Hust\Desktop\Peripheral_Interface_lab\MIPSfpga_ADT7420_C/ADT7420.c:763
	{
		ADT7420_SetHysteresis(THyst);
		rxData = 'm';
		uart_print("\n\r\n\r>Returning to Main Menu...\n\r");
	}
}
800020d8:	8fb10018 	lw	s1,24(sp)
800020dc:	8fb00014 	lw	s0,20(sp)
800020e0:	03e00008 	jr	ra
800020e4:	27bd0020 	addiu	sp,sp,32
C:\Users\Hust\Desktop\Peripheral_Interface_lab\MIPSfpga_ADT7420_C/ADT7420.c:759
		THyst = ADT7420_ConsoleRead();
	}

	if(valid == 1)
	{
		ADT7420_SetHysteresis(THyst);
800020e8:	0c000806 	jal	80002018 <ADT7420_SetHysteresis>
800020ec:	00402021 	move	a0,v0
C:\Users\Hust\Desktop\Peripheral_Interface_lab\MIPSfpga_ADT7420_C/ADT7420.c:763
		rxData = 'm';
		uart_print("\n\r\n\r>Returning to Main Menu...\n\r");
	}
}
800020f0:	8fbf001c 	lw	ra,28(sp)
800020f4:	8fb10018 	lw	s1,24(sp)
800020f8:	8fb00014 	lw	s0,20(sp)
C:\Users\Hust\Desktop\Peripheral_Interface_lab\MIPSfpga_ADT7420_C/ADT7420.c:761

	if(valid == 1)
	{
		ADT7420_SetHysteresis(THyst);
		rxData = 'm';
		uart_print("\n\r\n\r>Returning to Main Menu...\n\r");
800020fc:	3c048000 	lui	a0,0x8000
C:\Users\Hust\Desktop\Peripheral_Interface_lab\MIPSfpga_ADT7420_C/ADT7420.c:760
	}

	if(valid == 1)
	{
		ADT7420_SetHysteresis(THyst);
		rxData = 'm';
80002100:	2402006d 	li	v0,109
C:\Users\Hust\Desktop\Peripheral_Interface_lab\MIPSfpga_ADT7420_C/ADT7420.c:761
		uart_print("\n\r\n\r>Returning to Main Menu...\n\r");
80002104:	24842fd4 	addiu	a0,a0,12244
C:\Users\Hust\Desktop\Peripheral_Interface_lab\MIPSfpga_ADT7420_C/ADT7420.c:763
	}
}
80002108:	27bd0020 	addiu	sp,sp,32
C:\Users\Hust\Desktop\Peripheral_Interface_lab\MIPSfpga_ADT7420_C/ADT7420.c:760
	}

	if(valid == 1)
	{
		ADT7420_SetHysteresis(THyst);
		rxData = 'm';
8000210c:	af828008 	sw	v0,-32760(gp)
C:\Users\Hust\Desktop\Peripheral_Interface_lab\MIPSfpga_ADT7420_C/ADT7420.c:761
		uart_print("\n\r\n\r>Returning to Main Menu...\n\r");
80002110:	08000429 	j	800010a4 <uart_print>
80002114:	00000000 	nop

80002118 <ADT7420_PrintHysteresis>:
ADT7420_PrintHysteresis():
C:\Users\Hust\Desktop\Peripheral_Interface_lab\MIPSfpga_ADT7420_C/ADT7420.c:787
* @param None.
*
* @return None.
******************************************************************************/
void ADT7420_PrintHysteresis(void)
{
80002118:	27bdffd8 	addiu	sp,sp,-40
C:\Users\Hust\Desktop\Peripheral_Interface_lab\MIPSfpga_ADT7420_C/ADT7420.c:789
	unsigned char rxBuffer[2] = { 0x00 };
	I2C_Read(IIC_BASEADDR, ADT7420_IIC_ADDR, T_HYST_SETP, 1, rxBuffer);
8000211c:	27a20018 	addiu	v0,sp,24
80002120:	2405004b 	li	a1,75
80002124:	2406000a 	li	a2,10
80002128:	24070001 	li	a3,1
8000212c:	3c04b0a0 	lui	a0,0xb0a0
80002130:	afa20010 	sw	v0,16(sp)
C:\Users\Hust\Desktop\Peripheral_Interface_lab\MIPSfpga_ADT7420_C/ADT7420.c:787
* @param None.
*
* @return None.
******************************************************************************/
void ADT7420_PrintHysteresis(void)
{
80002134:	afbf0024 	sw	ra,36(sp)
C:\Users\Hust\Desktop\Peripheral_Interface_lab\MIPSfpga_ADT7420_C/ADT7420.c:789
	unsigned char rxBuffer[2] = { 0x00 };
	I2C_Read(IIC_BASEADDR, ADT7420_IIC_ADDR, T_HYST_SETP, 1, rxBuffer);
80002138:	0c000964 	jal	80002590 <I2C_Read>
8000213c:	a7a00018 	sh	zero,24(sp)
C:\Users\Hust\Desktop\Peripheral_Interface_lab\MIPSfpga_ADT7420_C/ADT7420.c:790
	uart_print("THyst Setpoint T = ");
80002140:	3c048000 	lui	a0,0x8000
80002144:	0c000429 	jal	800010a4 <uart_print>
80002148:	248431a4 	addiu	a0,a0,12708
C:\Users\Hust\Desktop\Peripheral_Interface_lab\MIPSfpga_ADT7420_C/ADT7420.c:791
	uart_print(my_itoa(rxBuffer[0]));
8000214c:	0c000467 	jal	8000119c <my_itoa>
80002150:	93a40018 	lbu	a0,24(sp)
80002154:	0c000429 	jal	800010a4 <uart_print>
80002158:	00402021 	move	a0,v0
C:\Users\Hust\Desktop\Peripheral_Interface_lab\MIPSfpga_ADT7420_C/ADT7420.c:792
	uart_print(" C\n\r");
8000215c:	3c048000 	lui	a0,0x8000
80002160:	0c000429 	jal	800010a4 <uart_print>
80002164:	2484319c 	addiu	a0,a0,12700
C:\Users\Hust\Desktop\Peripheral_Interface_lab\MIPSfpga_ADT7420_C/ADT7420.c:793
}
80002168:	8fbf0024 	lw	ra,36(sp)
8000216c:	03e00008 	jr	ra
80002170:	27bd0028 	addiu	sp,sp,40

80002174 <ADT7420_DisplaySetFaultQueueMenu>:
ADT7420_DisplaySetFaultQueueMenu():
C:\Users\Hust\Desktop\Peripheral_Interface_lab\MIPSfpga_ADT7420_C/ADT7420.c:807
void ADT7420_DisplaySetFaultQueueMenu(void)
{
	unsigned char txBuffer[1] = { 0x00 };
	char          rx          = 0;

	uart_print("\n\r>Fault Queue Menu\n\r");
80002174:	3c048000 	lui	a0,0x8000
C:\Users\Hust\Desktop\Peripheral_Interface_lab\MIPSfpga_ADT7420_C/ADT7420.c:803
* @param None.
*
* @return None.
******************************************************************************/
void ADT7420_DisplaySetFaultQueueMenu(void)
{
80002178:	27bdffd8 	addiu	sp,sp,-40
C:\Users\Hust\Desktop\Peripheral_Interface_lab\MIPSfpga_ADT7420_C/ADT7420.c:807
	unsigned char txBuffer[1] = { 0x00 };
	char          rx          = 0;

	uart_print("\n\r>Fault Queue Menu\n\r");
8000217c:	248431b8 	addiu	a0,a0,12728
C:\Users\Hust\Desktop\Peripheral_Interface_lab\MIPSfpga_ADT7420_C/ADT7420.c:803
* @param None.
*
* @return None.
******************************************************************************/
void ADT7420_DisplaySetFaultQueueMenu(void)
{
80002180:	afbf0024 	sw	ra,36(sp)
C:\Users\Hust\Desktop\Peripheral_Interface_lab\MIPSfpga_ADT7420_C/ADT7420.c:807
	unsigned char txBuffer[1] = { 0x00 };
	char          rx          = 0;

	uart_print("\n\r>Fault Queue Menu\n\r");
80002184:	0c000429 	jal	800010a4 <uart_print>
80002188:	a3a00018 	sb	zero,24(sp)
C:\Users\Hust\Desktop\Peripheral_Interface_lab\MIPSfpga_ADT7420_C/ADT7420.c:808
	uart_print("-----------------------------------------\n\r");
8000218c:	3c048000 	lui	a0,0x8000
80002190:	0c000429 	jal	800010a4 <uart_print>
80002194:	24842c38 	addiu	a0,a0,11320
C:\Users\Hust\Desktop\Peripheral_Interface_lab\MIPSfpga_ADT7420_C/ADT7420.c:809
	uart_print("Number of fault queues:\n\r");
80002198:	3c048000 	lui	a0,0x8000
8000219c:	0c000429 	jal	800010a4 <uart_print>
800021a0:	248431d0 	addiu	a0,a0,12752
C:\Users\Hust\Desktop\Peripheral_Interface_lab\MIPSfpga_ADT7420_C/ADT7420.c:810
	uart_print("	1. 1 fault\n\r");
800021a4:	3c048000 	lui	a0,0x8000
800021a8:	0c000429 	jal	800010a4 <uart_print>
800021ac:	248431ec 	addiu	a0,a0,12780
C:\Users\Hust\Desktop\Peripheral_Interface_lab\MIPSfpga_ADT7420_C/ADT7420.c:811
	uart_print("	2. 2 faults\n\r");
800021b0:	3c048000 	lui	a0,0x8000
800021b4:	0c000429 	jal	800010a4 <uart_print>
800021b8:	248431fc 	addiu	a0,a0,12796
C:\Users\Hust\Desktop\Peripheral_Interface_lab\MIPSfpga_ADT7420_C/ADT7420.c:812
	uart_print("	3. 3 faults\n\r");
800021bc:	3c048000 	lui	a0,0x8000
800021c0:	0c000429 	jal	800010a4 <uart_print>
800021c4:	2484320c 	addiu	a0,a0,12812
C:\Users\Hust\Desktop\Peripheral_Interface_lab\MIPSfpga_ADT7420_C/ADT7420.c:813
	uart_print("	4. 4 faults\n\r");
800021c8:	3c048000 	lui	a0,0x8000
800021cc:	0c000429 	jal	800010a4 <uart_print>
800021d0:	2484321c 	addiu	a0,a0,12828
C:\Users\Hust\Desktop\Peripheral_Interface_lab\MIPSfpga_ADT7420_C/ADT7420.c:817

	// Check if data is available on the UART
	// Store and display received data
	rx = uart_inbyte( );
800021d4:	0c000421 	jal	80001084 <uart_inbyte>
800021d8:	00000000 	nop
C:\Users\Hust\Desktop\Peripheral_Interface_lab\MIPSfpga_ADT7420_C/ADT7420.c:819

	switch (rx)
800021dc:	24030032 	li	v1,50
800021e0:	10430034 	beq	v0,v1,800022b4 <ADT7420_DisplaySetFaultQueueMenu+0x140>
800021e4:	2c430033 	sltiu	v1,v0,51
800021e8:	1460001e 	bnez	v1,80002264 <ADT7420_DisplaySetFaultQueueMenu+0xf0>
800021ec:	24030033 	li	v1,51
800021f0:	10430018 	beq	v0,v1,80002254 <ADT7420_DisplaySetFaultQueueMenu+0xe0>
800021f4:	24030034 	li	v1,52
800021f8:	14430021 	bne	v0,v1,80002280 <ADT7420_DisplaySetFaultQueueMenu+0x10c>
800021fc:	24020003 	li	v0,3
C:\Users\Hust\Desktop\Peripheral_Interface_lab\MIPSfpga_ADT7420_C/ADT7420.c:841
			rxData = 'm';
			uart_print("\n\r>Returning to Main Menu...\n\r");
			break;
		case '4' :
			txBuffer[0] = 0x03 << FAULT_QUEUE;
			uart_print("4 fault queues\n\r");
80002200:	3c048000 	lui	a0,0x8000
80002204:	24843264 	addiu	a0,a0,12900
C:\Users\Hust\Desktop\Peripheral_Interface_lab\MIPSfpga_ADT7420_C/ADT7420.c:828
			uart_print("1 fault queue\n\r");
			rxData = 'm';
			uart_print("\n\r>Returning to Main Menu...\n\r");
			break;
		case '2' :
			txBuffer[0] = 0x01 << FAULT_QUEUE;
80002208:	a3a20018 	sb	v0,24(sp)
C:\Users\Hust\Desktop\Peripheral_Interface_lab\MIPSfpga_ADT7420_C/ADT7420.c:829
			uart_print("2 fault queues\n\r");
8000220c:	0c000429 	jal	800010a4 <uart_print>
80002210:	00000000 	nop
C:\Users\Hust\Desktop\Peripheral_Interface_lab\MIPSfpga_ADT7420_C/ADT7420.c:831
			rxData = 'm';
			uart_print("\n\r>Returning to Main Menu...\n\r");
80002214:	3c048000 	lui	a0,0x8000
C:\Users\Hust\Desktop\Peripheral_Interface_lab\MIPSfpga_ADT7420_C/ADT7420.c:830
			uart_print("\n\r>Returning to Main Menu...\n\r");
			break;
		case '2' :
			txBuffer[0] = 0x01 << FAULT_QUEUE;
			uart_print("2 fault queues\n\r");
			rxData = 'm';
80002218:	2402006d 	li	v0,109
C:\Users\Hust\Desktop\Peripheral_Interface_lab\MIPSfpga_ADT7420_C/ADT7420.c:831
			uart_print("\n\r>Returning to Main Menu...\n\r");
8000221c:	24842ea4 	addiu	a0,a0,11940
C:\Users\Hust\Desktop\Peripheral_Interface_lab\MIPSfpga_ADT7420_C/ADT7420.c:830
			uart_print("\n\r>Returning to Main Menu...\n\r");
			break;
		case '2' :
			txBuffer[0] = 0x01 << FAULT_QUEUE;
			uart_print("2 fault queues\n\r");
			rxData = 'm';
80002220:	af828008 	sw	v0,-32760(gp)
C:\Users\Hust\Desktop\Peripheral_Interface_lab\MIPSfpga_ADT7420_C/ADT7420.c:831
			uart_print("\n\r>Returning to Main Menu...\n\r");
80002224:	0c000429 	jal	800010a4 <uart_print>
80002228:	00000000 	nop
C:\Users\Hust\Desktop\Peripheral_Interface_lab\MIPSfpga_ADT7420_C/ADT7420.c:849
			break;
		default:
			uart_print("Wrong option!\n\r");
			break;
	}
	I2C_Write(IIC_BASEADDR, ADT7420_IIC_ADDR, CONFIG_REG, 1, txBuffer);
8000222c:	27a20018 	addiu	v0,sp,24
80002230:	afa20010 	sw	v0,16(sp)
80002234:	3c04b0a0 	lui	a0,0xb0a0
80002238:	2405004b 	li	a1,75
8000223c:	24060003 	li	a2,3
80002240:	0c00099c 	jal	80002670 <I2C_Write>
80002244:	24070001 	li	a3,1
C:\Users\Hust\Desktop\Peripheral_Interface_lab\MIPSfpga_ADT7420_C/ADT7420.c:850
}
80002248:	8fbf0024 	lw	ra,36(sp)
8000224c:	03e00008 	jr	ra
80002250:	27bd0028 	addiu	sp,sp,40
C:\Users\Hust\Desktop\Peripheral_Interface_lab\MIPSfpga_ADT7420_C/ADT7420.c:835
			rxData = 'm';
			uart_print("\n\r>Returning to Main Menu...\n\r");
			break;
		case '3' :
			txBuffer[0] = 0x02 << FAULT_QUEUE;
			uart_print("3 fault queues\n\r");
80002254:	3c048000 	lui	a0,0x8000
80002258:	24843250 	addiu	a0,a0,12880
C:\Users\Hust\Desktop\Peripheral_Interface_lab\MIPSfpga_ADT7420_C/ADT7420.c:834
			uart_print("2 fault queues\n\r");
			rxData = 'm';
			uart_print("\n\r>Returning to Main Menu...\n\r");
			break;
		case '3' :
			txBuffer[0] = 0x02 << FAULT_QUEUE;
8000225c:	1000ffea 	b	80002208 <ADT7420_DisplaySetFaultQueueMenu+0x94>
80002260:	24020002 	li	v0,2
C:\Users\Hust\Desktop\Peripheral_Interface_lab\MIPSfpga_ADT7420_C/ADT7420.c:819

	// Check if data is available on the UART
	// Store and display received data
	rx = uart_inbyte( );

	switch (rx)
80002264:	24030031 	li	v1,49
80002268:	54430006 	bnel	v0,v1,80002284 <ADT7420_DisplaySetFaultQueueMenu+0x110>
8000226c:	3c048000 	lui	a0,0x8000
C:\Users\Hust\Desktop\Peripheral_Interface_lab\MIPSfpga_ADT7420_C/ADT7420.c:823
	{
	case '1' :
			txBuffer[0] = 0x00 << FAULT_QUEUE;
			uart_print("1 fault queue\n\r");
80002270:	3c048000 	lui	a0,0x8000
80002274:	2484322c 	addiu	a0,a0,12844
C:\Users\Hust\Desktop\Peripheral_Interface_lab\MIPSfpga_ADT7420_C/ADT7420.c:822
	rx = uart_inbyte( );

	switch (rx)
	{
	case '1' :
			txBuffer[0] = 0x00 << FAULT_QUEUE;
80002278:	1000ffe4 	b	8000220c <ADT7420_DisplaySetFaultQueueMenu+0x98>
8000227c:	a3a00018 	sb	zero,24(sp)
C:\Users\Hust\Desktop\Peripheral_Interface_lab\MIPSfpga_ADT7420_C/ADT7420.c:846
			uart_print("4 fault queues\n\r");
			rxData = 'm';
			uart_print("\n\r>Returning to Main Menu...\n\r");
			break;
		default:
			uart_print("Wrong option!\n\r");
80002280:	3c048000 	lui	a0,0x8000
80002284:	0c000429 	jal	800010a4 <uart_print>
80002288:	24842ec4 	addiu	a0,a0,11972
C:\Users\Hust\Desktop\Peripheral_Interface_lab\MIPSfpga_ADT7420_C/ADT7420.c:849
			break;
	}
	I2C_Write(IIC_BASEADDR, ADT7420_IIC_ADDR, CONFIG_REG, 1, txBuffer);
8000228c:	27a20018 	addiu	v0,sp,24
80002290:	afa20010 	sw	v0,16(sp)
80002294:	3c04b0a0 	lui	a0,0xb0a0
80002298:	2405004b 	li	a1,75
8000229c:	24060003 	li	a2,3
800022a0:	0c00099c 	jal	80002670 <I2C_Write>
800022a4:	24070001 	li	a3,1
C:\Users\Hust\Desktop\Peripheral_Interface_lab\MIPSfpga_ADT7420_C/ADT7420.c:850
}
800022a8:	8fbf0024 	lw	ra,36(sp)
800022ac:	03e00008 	jr	ra
800022b0:	27bd0028 	addiu	sp,sp,40
C:\Users\Hust\Desktop\Peripheral_Interface_lab\MIPSfpga_ADT7420_C/ADT7420.c:829
			rxData = 'm';
			uart_print("\n\r>Returning to Main Menu...\n\r");
			break;
		case '2' :
			txBuffer[0] = 0x01 << FAULT_QUEUE;
			uart_print("2 fault queues\n\r");
800022b4:	3c048000 	lui	a0,0x8000
800022b8:	2484323c 	addiu	a0,a0,12860
C:\Users\Hust\Desktop\Peripheral_Interface_lab\MIPSfpga_ADT7420_C/ADT7420.c:828
			uart_print("1 fault queue\n\r");
			rxData = 'm';
			uart_print("\n\r>Returning to Main Menu...\n\r");
			break;
		case '2' :
			txBuffer[0] = 0x01 << FAULT_QUEUE;
800022bc:	1000ffd2 	b	80002208 <ADT7420_DisplaySetFaultQueueMenu+0x94>
800022c0:	24020001 	li	v0,1

800022c4 <ADT7420_PrintFaultQueue>:
ADT7420_PrintFaultQueue():
C:\Users\Hust\Desktop\Peripheral_Interface_lab\MIPSfpga_ADT7420_C/ADT7420.c:860
* @param None.
*
* @return None.
******************************************************************************/
void ADT7420_PrintFaultQueue(void)
{
800022c4:	27bdffd8 	addiu	sp,sp,-40
C:\Users\Hust\Desktop\Peripheral_Interface_lab\MIPSfpga_ADT7420_C/ADT7420.c:864
	unsigned char rxBuffer[1] = { 0x00 };
	char          rx          = 0;

	I2C_Read(IIC_BASEADDR, ADT7420_IIC_ADDR, CONFIG_REG, 1, rxBuffer);
800022c8:	27a20018 	addiu	v0,sp,24
800022cc:	3c04b0a0 	lui	a0,0xb0a0
800022d0:	afa20010 	sw	v0,16(sp)
800022d4:	2405004b 	li	a1,75
800022d8:	24060003 	li	a2,3
800022dc:	24070001 	li	a3,1
C:\Users\Hust\Desktop\Peripheral_Interface_lab\MIPSfpga_ADT7420_C/ADT7420.c:860
* @param None.
*
* @return None.
******************************************************************************/
void ADT7420_PrintFaultQueue(void)
{
800022e0:	afbf0024 	sw	ra,36(sp)
C:\Users\Hust\Desktop\Peripheral_Interface_lab\MIPSfpga_ADT7420_C/ADT7420.c:864
	unsigned char rxBuffer[1] = { 0x00 };
	char          rx          = 0;

	I2C_Read(IIC_BASEADDR, ADT7420_IIC_ADDR, CONFIG_REG, 1, rxBuffer);
800022e4:	0c000964 	jal	80002590 <I2C_Read>
800022e8:	a3a00018 	sb	zero,24(sp)
C:\Users\Hust\Desktop\Peripheral_Interface_lab\MIPSfpga_ADT7420_C/ADT7420.c:866

	rx = rxBuffer[0] & (0x03 << FAULT_QUEUE);
800022ec:	93a20018 	lbu	v0,24(sp)
C:\Users\Hust\Desktop\Peripheral_Interface_lab\MIPSfpga_ADT7420_C/ADT7420.c:868

	switch (rx)
800022f0:	24030002 	li	v1,2
800022f4:	30420003 	andi	v0,v0,0x3
800022f8:	10430016 	beq	v0,v1,80002354 <ADT7420_PrintFaultQueue+0x90>
800022fc:	24030003 	li	v1,3
80002300:	1043000e 	beq	v0,v1,8000233c <ADT7420_PrintFaultQueue+0x78>
80002304:	24030001 	li	v1,1
80002308:	50430007 	beql	v0,v1,80002328 <ADT7420_PrintFaultQueue+0x64>
8000230c:	3c048000 	lui	a0,0x8000
C:\Users\Hust\Desktop\Peripheral_Interface_lab\MIPSfpga_ADT7420_C/ADT7420.c:871
	{
		case 0x00 :
			uart_print("1 fault queue\n\r");
80002310:	3c048000 	lui	a0,0x8000
80002314:	0c000429 	jal	800010a4 <uart_print>
80002318:	2484322c 	addiu	a0,a0,12844
C:\Users\Hust\Desktop\Peripheral_Interface_lab\MIPSfpga_ADT7420_C/ADT7420.c:885
			uart_print("4 fault queues\n\r");
			break;
		default:
			break;
	}
}
8000231c:	8fbf0024 	lw	ra,36(sp)
80002320:	03e00008 	jr	ra
80002324:	27bd0028 	addiu	sp,sp,40
C:\Users\Hust\Desktop\Peripheral_Interface_lab\MIPSfpga_ADT7420_C/ADT7420.c:874
	{
		case 0x00 :
			uart_print("1 fault queue\n\r");
			break;
		case 0x01 :
			uart_print("2 fault queues\n\r");
80002328:	0c000429 	jal	800010a4 <uart_print>
8000232c:	2484323c 	addiu	a0,a0,12860
C:\Users\Hust\Desktop\Peripheral_Interface_lab\MIPSfpga_ADT7420_C/ADT7420.c:885
			uart_print("4 fault queues\n\r");
			break;
		default:
			break;
	}
}
80002330:	8fbf0024 	lw	ra,36(sp)
80002334:	03e00008 	jr	ra
80002338:	27bd0028 	addiu	sp,sp,40
C:\Users\Hust\Desktop\Peripheral_Interface_lab\MIPSfpga_ADT7420_C/ADT7420.c:880
			break;
		case 0x02 :
			uart_print("3 fault queues\n\r");
			break;
		case 0x03 :
			uart_print("4 fault queues\n\r");
8000233c:	3c048000 	lui	a0,0x8000
80002340:	0c000429 	jal	800010a4 <uart_print>
80002344:	24843264 	addiu	a0,a0,12900
C:\Users\Hust\Desktop\Peripheral_Interface_lab\MIPSfpga_ADT7420_C/ADT7420.c:885
			break;
		default:
			break;
	}
}
80002348:	8fbf0024 	lw	ra,36(sp)
8000234c:	03e00008 	jr	ra
80002350:	27bd0028 	addiu	sp,sp,40
C:\Users\Hust\Desktop\Peripheral_Interface_lab\MIPSfpga_ADT7420_C/ADT7420.c:877
			break;
		case 0x01 :
			uart_print("2 fault queues\n\r");
			break;
		case 0x02 :
			uart_print("3 fault queues\n\r");
80002354:	3c048000 	lui	a0,0x8000
80002358:	0c000429 	jal	800010a4 <uart_print>
8000235c:	24843250 	addiu	a0,a0,12880
C:\Users\Hust\Desktop\Peripheral_Interface_lab\MIPSfpga_ADT7420_C/ADT7420.c:885
			uart_print("4 fault queues\n\r");
			break;
		default:
			break;
	}
}
80002360:	8fbf0024 	lw	ra,36(sp)
80002364:	03e00008 	jr	ra
80002368:	27bd0028 	addiu	sp,sp,40

8000236c <ADT7420_PrintAlertMode>:
ADT7420_PrintAlertMode():
C:\Users\Hust\Desktop\Peripheral_Interface_lab\MIPSfpga_ADT7420_C/ADT7420.c:895
* @param None.
*
* @return None.
******************************************************************************/
void ADT7420_PrintAlertMode(void)
{
8000236c:	27bdffd8 	addiu	sp,sp,-40
C:\Users\Hust\Desktop\Peripheral_Interface_lab\MIPSfpga_ADT7420_C/ADT7420.c:897
	unsigned char rxBuffer[2] = { 0x00 };
	I2C_Read(IIC_BASEADDR, ADT7420_IIC_ADDR, CONFIG_REG, 1, rxBuffer);
80002370:	27a20018 	addiu	v0,sp,24
80002374:	3c04b0a0 	lui	a0,0xb0a0
80002378:	afa20010 	sw	v0,16(sp)
8000237c:	2405004b 	li	a1,75
80002380:	24060003 	li	a2,3
80002384:	24070001 	li	a3,1
C:\Users\Hust\Desktop\Peripheral_Interface_lab\MIPSfpga_ADT7420_C/ADT7420.c:895
* @param None.
*
* @return None.
******************************************************************************/
void ADT7420_PrintAlertMode(void)
{
80002388:	afbf0024 	sw	ra,36(sp)
C:\Users\Hust\Desktop\Peripheral_Interface_lab\MIPSfpga_ADT7420_C/ADT7420.c:897
	unsigned char rxBuffer[2] = { 0x00 };
	I2C_Read(IIC_BASEADDR, ADT7420_IIC_ADDR, CONFIG_REG, 1, rxBuffer);
8000238c:	0c000964 	jal	80002590 <I2C_Read>
80002390:	a7a00018 	sh	zero,24(sp)
C:\Users\Hust\Desktop\Peripheral_Interface_lab\MIPSfpga_ADT7420_C/ADT7420.c:899

	if (rxBuffer[0] & (1 << INT_CT))
80002394:	93a20018 	lbu	v0,24(sp)
80002398:	30420010 	andi	v0,v0,0x10
8000239c:	54400007 	bnezl	v0,800023bc <ADT7420_PrintAlertMode+0x50>
800023a0:	3c048000 	lui	a0,0x8000
C:\Users\Hust\Desktop\Peripheral_Interface_lab\MIPSfpga_ADT7420_C/ADT7420.c:905
	{
		uart_print("Alert Mode: Comparator\n\r");
	}
	else
	{
		uart_print("Alert Mode: Interrupt\n\r");
800023a4:	3c048000 	lui	a0,0x8000
800023a8:	0c000429 	jal	800010a4 <uart_print>
800023ac:	24843294 	addiu	a0,a0,12948
C:\Users\Hust\Desktop\Peripheral_Interface_lab\MIPSfpga_ADT7420_C/ADT7420.c:907
	}
}
800023b0:	8fbf0024 	lw	ra,36(sp)
800023b4:	03e00008 	jr	ra
800023b8:	27bd0028 	addiu	sp,sp,40
C:\Users\Hust\Desktop\Peripheral_Interface_lab\MIPSfpga_ADT7420_C/ADT7420.c:901
	unsigned char rxBuffer[2] = { 0x00 };
	I2C_Read(IIC_BASEADDR, ADT7420_IIC_ADDR, CONFIG_REG, 1, rxBuffer);

	if (rxBuffer[0] & (1 << INT_CT))
	{
		uart_print("Alert Mode: Comparator\n\r");
800023bc:	0c000429 	jal	800010a4 <uart_print>
800023c0:	24843278 	addiu	a0,a0,12920
C:\Users\Hust\Desktop\Peripheral_Interface_lab\MIPSfpga_ADT7420_C/ADT7420.c:907
	}
	else
	{
		uart_print("Alert Mode: Interrupt\n\r");
	}
}
800023c4:	8fbf0024 	lw	ra,36(sp)
800023c8:	03e00008 	jr	ra
800023cc:	27bd0028 	addiu	sp,sp,40

800023d0 <ADT7420_PrintCTPolarity>:
ADT7420_PrintCTPolarity():
C:\Users\Hust\Desktop\Peripheral_Interface_lab\MIPSfpga_ADT7420_C/ADT7420.c:917
* @param None.
*
* @return None.
******************************************************************************/
void ADT7420_PrintCTPolarity(void)
{
800023d0:	27bdffd8 	addiu	sp,sp,-40
C:\Users\Hust\Desktop\Peripheral_Interface_lab\MIPSfpga_ADT7420_C/ADT7420.c:919
	unsigned char rxBuffer[1] = { 0x00 };
	I2C_Read(IIC_BASEADDR, ADT7420_IIC_ADDR, CONFIG_REG, 1, rxBuffer);
800023d4:	27a20018 	addiu	v0,sp,24
800023d8:	3c04b0a0 	lui	a0,0xb0a0
800023dc:	afa20010 	sw	v0,16(sp)
800023e0:	2405004b 	li	a1,75
800023e4:	24060003 	li	a2,3
800023e8:	24070001 	li	a3,1
C:\Users\Hust\Desktop\Peripheral_Interface_lab\MIPSfpga_ADT7420_C/ADT7420.c:917
* @param None.
*
* @return None.
******************************************************************************/
void ADT7420_PrintCTPolarity(void)
{
800023ec:	afbf0024 	sw	ra,36(sp)
C:\Users\Hust\Desktop\Peripheral_Interface_lab\MIPSfpga_ADT7420_C/ADT7420.c:919
	unsigned char rxBuffer[1] = { 0x00 };
	I2C_Read(IIC_BASEADDR, ADT7420_IIC_ADDR, CONFIG_REG, 1, rxBuffer);
800023f0:	0c000964 	jal	80002590 <I2C_Read>
800023f4:	a3a00018 	sb	zero,24(sp)
C:\Users\Hust\Desktop\Peripheral_Interface_lab\MIPSfpga_ADT7420_C/ADT7420.c:921

	if (rxBuffer[0] & (1 << CT_POL))
800023f8:	93a20018 	lbu	v0,24(sp)
800023fc:	30420004 	andi	v0,v0,0x4
80002400:	54400007 	bnezl	v0,80002420 <ADT7420_PrintCTPolarity+0x50>
80002404:	3c048000 	lui	a0,0x8000
C:\Users\Hust\Desktop\Peripheral_Interface_lab\MIPSfpga_ADT7420_C/ADT7420.c:927
	{
		uart_print("CT pin is Active High\n\r");
	}
	else
	{
		uart_print("CT pin is Active Low\n\r");
80002408:	3c048000 	lui	a0,0x8000
8000240c:	0c000429 	jal	800010a4 <uart_print>
80002410:	248432c4 	addiu	a0,a0,12996
C:\Users\Hust\Desktop\Peripheral_Interface_lab\MIPSfpga_ADT7420_C/ADT7420.c:929
	}
}
80002414:	8fbf0024 	lw	ra,36(sp)
80002418:	03e00008 	jr	ra
8000241c:	27bd0028 	addiu	sp,sp,40
C:\Users\Hust\Desktop\Peripheral_Interface_lab\MIPSfpga_ADT7420_C/ADT7420.c:923
	unsigned char rxBuffer[1] = { 0x00 };
	I2C_Read(IIC_BASEADDR, ADT7420_IIC_ADDR, CONFIG_REG, 1, rxBuffer);

	if (rxBuffer[0] & (1 << CT_POL))
	{
		uart_print("CT pin is Active High\n\r");
80002420:	0c000429 	jal	800010a4 <uart_print>
80002424:	248432ac 	addiu	a0,a0,12972
C:\Users\Hust\Desktop\Peripheral_Interface_lab\MIPSfpga_ADT7420_C/ADT7420.c:929
	}
	else
	{
		uart_print("CT pin is Active Low\n\r");
	}
}
80002428:	8fbf0024 	lw	ra,36(sp)
8000242c:	03e00008 	jr	ra
80002430:	27bd0028 	addiu	sp,sp,40

80002434 <ADT7420_PrintINTPolarity>:
ADT7420_PrintINTPolarity():
C:\Users\Hust\Desktop\Peripheral_Interface_lab\MIPSfpga_ADT7420_C/ADT7420.c:940
* @param None.
*
* @return None.
******************************************************************************/
void ADT7420_PrintINTPolarity(void)
{
80002434:	27bdffd8 	addiu	sp,sp,-40
C:\Users\Hust\Desktop\Peripheral_Interface_lab\MIPSfpga_ADT7420_C/ADT7420.c:942
	unsigned char rxBuffer[1] = { 0x00 };
	I2C_Read(IIC_BASEADDR, ADT7420_IIC_ADDR, CONFIG_REG, 1, rxBuffer);
80002438:	27a20018 	addiu	v0,sp,24
8000243c:	3c04b0a0 	lui	a0,0xb0a0
80002440:	afa20010 	sw	v0,16(sp)
80002444:	2405004b 	li	a1,75
80002448:	24060003 	li	a2,3
8000244c:	24070001 	li	a3,1
C:\Users\Hust\Desktop\Peripheral_Interface_lab\MIPSfpga_ADT7420_C/ADT7420.c:940
* @param None.
*
* @return None.
******************************************************************************/
void ADT7420_PrintINTPolarity(void)
{
80002450:	afbf0024 	sw	ra,36(sp)
C:\Users\Hust\Desktop\Peripheral_Interface_lab\MIPSfpga_ADT7420_C/ADT7420.c:942
	unsigned char rxBuffer[1] = { 0x00 };
	I2C_Read(IIC_BASEADDR, ADT7420_IIC_ADDR, CONFIG_REG, 1, rxBuffer);
80002454:	0c000964 	jal	80002590 <I2C_Read>
80002458:	a3a00018 	sb	zero,24(sp)
C:\Users\Hust\Desktop\Peripheral_Interface_lab\MIPSfpga_ADT7420_C/ADT7420.c:944

	if (rxBuffer[0] & (1 << INT_POL))
8000245c:	93a20018 	lbu	v0,24(sp)
80002460:	30420008 	andi	v0,v0,0x8
80002464:	54400007 	bnezl	v0,80002484 <ADT7420_PrintINTPolarity+0x50>
80002468:	3c048000 	lui	a0,0x8000
C:\Users\Hust\Desktop\Peripheral_Interface_lab\MIPSfpga_ADT7420_C/ADT7420.c:950
	{
		uart_print("INT pin is Active High\n\r");
	}
	else
	{
		uart_print("INT pin is Active Low\n\r");
8000246c:	3c048000 	lui	a0,0x8000
80002470:	0c000429 	jal	800010a4 <uart_print>
80002474:	248432f8 	addiu	a0,a0,13048
C:\Users\Hust\Desktop\Peripheral_Interface_lab\MIPSfpga_ADT7420_C/ADT7420.c:952
	}
}
80002478:	8fbf0024 	lw	ra,36(sp)
8000247c:	03e00008 	jr	ra
80002480:	27bd0028 	addiu	sp,sp,40
C:\Users\Hust\Desktop\Peripheral_Interface_lab\MIPSfpga_ADT7420_C/ADT7420.c:946
	unsigned char rxBuffer[1] = { 0x00 };
	I2C_Read(IIC_BASEADDR, ADT7420_IIC_ADDR, CONFIG_REG, 1, rxBuffer);

	if (rxBuffer[0] & (1 << INT_POL))
	{
		uart_print("INT pin is Active High\n\r");
80002484:	0c000429 	jal	800010a4 <uart_print>
80002488:	248432dc 	addiu	a0,a0,13020
C:\Users\Hust\Desktop\Peripheral_Interface_lab\MIPSfpga_ADT7420_C/ADT7420.c:952
	}
	else
	{
		uart_print("INT pin is Active Low\n\r");
	}
}
8000248c:	8fbf0024 	lw	ra,36(sp)
80002490:	03e00008 	jr	ra
80002494:	27bd0028 	addiu	sp,sp,40

80002498 <ADT7420_DisplaySettings>:
ADT7420_DisplaySettings():
C:\Users\Hust\Desktop\Peripheral_Interface_lab\MIPSfpga_ADT7420_C/ADT7420.c:963
*
* @return None.
******************************************************************************/
void ADT7420_DisplaySettings(void)
{
	uart_print("\n\r ADT7420 Settings \n\r");
80002498:	3c048000 	lui	a0,0x8000
C:\Users\Hust\Desktop\Peripheral_Interface_lab\MIPSfpga_ADT7420_C/ADT7420.c:962
* @param None.
*
* @return None.
******************************************************************************/
void ADT7420_DisplaySettings(void)
{
8000249c:	27bdffe8 	addiu	sp,sp,-24
800024a0:	afbf0014 	sw	ra,20(sp)
C:\Users\Hust\Desktop\Peripheral_Interface_lab\MIPSfpga_ADT7420_C/ADT7420.c:963
	uart_print("\n\r ADT7420 Settings \n\r");
800024a4:	0c000429 	jal	800010a4 <uart_print>
800024a8:	24843310 	addiu	a0,a0,13072
C:\Users\Hust\Desktop\Peripheral_Interface_lab\MIPSfpga_ADT7420_C/ADT7420.c:964
	uart_print("-----------------------------------------\n\r");
800024ac:	3c048000 	lui	a0,0x8000
800024b0:	0c000429 	jal	800010a4 <uart_print>
800024b4:	24842c38 	addiu	a0,a0,11320
C:\Users\Hust\Desktop\Peripheral_Interface_lab\MIPSfpga_ADT7420_C/ADT7420.c:965
	ADT7420_GetResolution(1);
800024b8:	0c000559 	jal	80001564 <ADT7420_GetResolution>
800024bc:	24040001 	li	a0,1
C:\Users\Hust\Desktop\Peripheral_Interface_lab\MIPSfpga_ADT7420_C/ADT7420.c:967

	ADT7420_PrintTHigh();
800024c0:	0c0006d8 	jal	80001b60 <ADT7420_PrintTHigh>
800024c4:	00000000 	nop
C:\Users\Hust\Desktop\Peripheral_Interface_lab\MIPSfpga_ADT7420_C/ADT7420.c:968
	ADT7420_PrintTLow();
800024c8:	0c00075a 	jal	80001d68 <ADT7420_PrintTLow>
800024cc:	00000000 	nop
C:\Users\Hust\Desktop\Peripheral_Interface_lab\MIPSfpga_ADT7420_C/ADT7420.c:969
	ADT7420_PrintTCrit();
800024d0:	0c0007dc 	jal	80001f70 <ADT7420_PrintTCrit>
800024d4:	00000000 	nop
C:\Users\Hust\Desktop\Peripheral_Interface_lab\MIPSfpga_ADT7420_C/ADT7420.c:970
	ADT7420_PrintHysteresis();
800024d8:	0c000846 	jal	80002118 <ADT7420_PrintHysteresis>
800024dc:	00000000 	nop
C:\Users\Hust\Desktop\Peripheral_Interface_lab\MIPSfpga_ADT7420_C/ADT7420.c:972

	ADT7420_PrintFaultQueue();
800024e0:	0c0008b1 	jal	800022c4 <ADT7420_PrintFaultQueue>
800024e4:	00000000 	nop
C:\Users\Hust\Desktop\Peripheral_Interface_lab\MIPSfpga_ADT7420_C/ADT7420.c:974

	ADT7420_PrintAlertMode();
800024e8:	0c0008db 	jal	8000236c <ADT7420_PrintAlertMode>
800024ec:	00000000 	nop
C:\Users\Hust\Desktop\Peripheral_Interface_lab\MIPSfpga_ADT7420_C/ADT7420.c:975
	ADT7420_PrintCTPolarity();
800024f0:	0c0008f4 	jal	800023d0 <ADT7420_PrintCTPolarity>
800024f4:	00000000 	nop
C:\Users\Hust\Desktop\Peripheral_Interface_lab\MIPSfpga_ADT7420_C/ADT7420.c:976
	ADT7420_PrintINTPolarity();
800024f8:	0c00090d 	jal	80002434 <ADT7420_PrintINTPolarity>
800024fc:	00000000 	nop
C:\Users\Hust\Desktop\Peripheral_Interface_lab\MIPSfpga_ADT7420_C/ADT7420.c:980

	rxData = 'm';
	uart_print("\n\r>Returning to Main Menu...\n\r");
}
80002500:	8fbf0014 	lw	ra,20(sp)
C:\Users\Hust\Desktop\Peripheral_Interface_lab\MIPSfpga_ADT7420_C/ADT7420.c:979
	ADT7420_PrintAlertMode();
	ADT7420_PrintCTPolarity();
	ADT7420_PrintINTPolarity();

	rxData = 'm';
	uart_print("\n\r>Returning to Main Menu...\n\r");
80002504:	3c048000 	lui	a0,0x8000
C:\Users\Hust\Desktop\Peripheral_Interface_lab\MIPSfpga_ADT7420_C/ADT7420.c:978

	ADT7420_PrintAlertMode();
	ADT7420_PrintCTPolarity();
	ADT7420_PrintINTPolarity();

	rxData = 'm';
80002508:	2402006d 	li	v0,109
C:\Users\Hust\Desktop\Peripheral_Interface_lab\MIPSfpga_ADT7420_C/ADT7420.c:979
	uart_print("\n\r>Returning to Main Menu...\n\r");
8000250c:	24842ea4 	addiu	a0,a0,11940
C:\Users\Hust\Desktop\Peripheral_Interface_lab\MIPSfpga_ADT7420_C/ADT7420.c:980
}
80002510:	27bd0018 	addiu	sp,sp,24
C:\Users\Hust\Desktop\Peripheral_Interface_lab\MIPSfpga_ADT7420_C/ADT7420.c:978

	ADT7420_PrintAlertMode();
	ADT7420_PrintCTPolarity();
	ADT7420_PrintINTPolarity();

	rxData = 'm';
80002514:	af828008 	sw	v0,-32760(gp)
C:\Users\Hust\Desktop\Peripheral_Interface_lab\MIPSfpga_ADT7420_C/ADT7420.c:979
	uart_print("\n\r>Returning to Main Menu...\n\r");
80002518:	08000429 	j	800010a4 <uart_print>
8000251c:	00000000 	nop

80002520 <delay_ms>:
delay_ms():
C:\Users\Hust\Desktop\Peripheral_Interface_lab\MIPSfpga_ADT7420_C/i2c.c:63
* @return None.
******************************************************************************/
void delay_ms(unsigned int ms_count)
{
	unsigned count;
	for (count = 0; count < ((ms_count * 100000) + 1); count++)
80002520:	00041880 	sll	v1,a0,0x2
80002524:	000411c0 	sll	v0,a0,0x7
80002528:	00431023 	subu	v0,v0,v1
8000252c:	00442021 	addu	a0,v0,a0
80002530:	00041880 	sll	v1,a0,0x2
80002534:	00832021 	addu	a0,a0,v1
80002538:	00041880 	sll	v1,a0,0x2
8000253c:	00831821 	addu	v1,a0,v1
80002540:	00031940 	sll	v1,v1,0x5
80002544:	24630001 	addiu	v1,v1,1
80002548:	00001021 	move	v0,zero
C:\Users\Hust\Desktop\Peripheral_Interface_lab\MIPSfpga_ADT7420_C/i2c.c:65 (discriminator 3)
	{
	  asm("nop");
8000254c:	00000000 	nop
C:\Users\Hust\Desktop\Peripheral_Interface_lab\MIPSfpga_ADT7420_C/i2c.c:63 (discriminator 3)
* @return None.
******************************************************************************/
void delay_ms(unsigned int ms_count)
{
	unsigned count;
	for (count = 0; count < ((ms_count * 100000) + 1); count++)
80002550:	24420001 	addiu	v0,v0,1
80002554:	0043202b 	sltu	a0,v0,v1
80002558:	1480fffc 	bnez	a0,8000254c <delay_ms+0x2c>
8000255c:	00000000 	nop
C:\Users\Hust\Desktop\Peripheral_Interface_lab\MIPSfpga_ADT7420_C/i2c.c:67
	{
	  asm("nop");
	}
}
80002560:	03e00008 	jr	ra
80002564:	00000000 	nop

80002568 <I2C_Init>:
I2C_Init():
C:\Users\Hust\Desktop\Peripheral_Interface_lab\MIPSfpga_ADT7420_C/i2c.c:82
{
	//disable the I2C core
	*WRITE_IO(axiBaseAddr + CR) = 0x00;
	
	//set the Rx FIFO depth to maximum
	*WRITE_IO(axiBaseAddr + RX_FIFO_PIRQ) = 0x0F;
80002568:	2403000f 	li	v1,15
C:\Users\Hust\Desktop\Peripheral_Interface_lab\MIPSfpga_ADT7420_C/i2c.c:79
* @return TRUE.
******************************************************************************/
unsigned int I2C_Init(unsigned int axiBaseAddr, unsigned int i2cAddr)
{
	//disable the I2C core
	*WRITE_IO(axiBaseAddr + CR) = 0x00;
8000256c:	ac800100 	sw	zero,256(a0)
C:\Users\Hust\Desktop\Peripheral_Interface_lab\MIPSfpga_ADT7420_C/i2c.c:82
	
	//set the Rx FIFO depth to maximum
	*WRITE_IO(axiBaseAddr + RX_FIFO_PIRQ) = 0x0F;
80002570:	ac830120 	sw	v1,288(a0)
C:\Users\Hust\Desktop\Peripheral_Interface_lab\MIPSfpga_ADT7420_C/i2c.c:85
	
	//reset the I2C core and flush the Tx fifo
	*WRITE_IO(axiBaseAddr + CR) = 0x02;
80002574:	24030002 	li	v1,2
80002578:	ac830100 	sw	v1,256(a0)
C:\Users\Hust\Desktop\Peripheral_Interface_lab\MIPSfpga_ADT7420_C/i2c.c:88
	
	//enable the I2C core
	*WRITE_IO(axiBaseAddr + CR) = 0x01;
8000257c:	24030001 	li	v1,1
C:\Users\Hust\Desktop\Peripheral_Interface_lab\MIPSfpga_ADT7420_C/i2c.c:91

	return 1;
}
80002580:	24020001 	li	v0,1
C:\Users\Hust\Desktop\Peripheral_Interface_lab\MIPSfpga_ADT7420_C/i2c.c:88
	
	//reset the I2C core and flush the Tx fifo
	*WRITE_IO(axiBaseAddr + CR) = 0x02;
	
	//enable the I2C core
	*WRITE_IO(axiBaseAddr + CR) = 0x01;
80002584:	ac830100 	sw	v1,256(a0)
C:\Users\Hust\Desktop\Peripheral_Interface_lab\MIPSfpga_ADT7420_C/i2c.c:91

	return 1;
}
80002588:	03e00008 	jr	ra
8000258c:	00000000 	nop

80002590 <I2C_Read>:
I2C_Read():
C:\Users\Hust\Desktop\Peripheral_Interface_lab\MIPSfpga_ADT7420_C/i2c.c:111
{
	unsigned int rxCnt   = 0;
	unsigned int timeout = 0xFFFFFF;

	// Reset tx fifo
	*WRITE_IO(axiBaseAddr + CR) = 0x002;
80002590:	24020002 	li	v0,2
80002594:	ac820100 	sw	v0,256(a0)
C:\Users\Hust\Desktop\Peripheral_Interface_lab\MIPSfpga_ADT7420_C/i2c.c:106
* @param rxBuf - Buffer to store the read data.
* @return Returns the number of bytes read.
******************************************************************************/
unsigned int I2C_Read(unsigned int axiBaseAddr, unsigned int i2cAddr, 
					  unsigned int regAddr, unsigned int rxSize, unsigned char* rxBuf)
{
80002598:	8fa80010 	lw	t0,16(sp)
C:\Users\Hust\Desktop\Peripheral_Interface_lab\MIPSfpga_ADT7420_C/i2c.c:114

	// Reset tx fifo
	*WRITE_IO(axiBaseAddr + CR) = 0x002;

	// Enable iic
	*WRITE_IO(axiBaseAddr + CR) = 0x001;
8000259c:	24020001 	li	v0,1
800025a0:	ac820100 	sw	v0,256(a0)
800025a4:	3c02000f 	lui	v0,0xf
800025a8:	24424241 	addiu	v0,v0,16961
delay_ms():
C:\Users\Hust\Desktop\Peripheral_Interface_lab\MIPSfpga_ADT7420_C/i2c.c:65
void delay_ms(unsigned int ms_count)
{
	unsigned count;
	for (count = 0; count < ((ms_count * 100000) + 1); count++)
	{
	  asm("nop");
800025ac:	00000000 	nop
800025b0:	2442ffff 	addiu	v0,v0,-1
C:\Users\Hust\Desktop\Peripheral_Interface_lab\MIPSfpga_ADT7420_C/i2c.c:63
* @return None.
******************************************************************************/
void delay_ms(unsigned int ms_count)
{
	unsigned count;
	for (count = 0; count < ((ms_count * 100000) + 1); count++)
800025b4:	1440fffd 	bnez	v0,800025ac <I2C_Read+0x1c>
800025b8:	00000000 	nop
I2C_Read():
C:\Users\Hust\Desktop\Peripheral_Interface_lab\MIPSfpga_ADT7420_C/i2c.c:118
	// Enable iic
	*WRITE_IO(axiBaseAddr + CR) = 0x001;

	delay_ms(10);

	if(regAddr != -1)
800025bc:	2402ffff 	li	v0,-1
800025c0:	10c20029 	beq	a2,v0,80002668 <I2C_Read+0xd8>
800025c4:	24820108 	addiu	v0,a0,264
C:\Users\Hust\Desktop\Peripheral_Interface_lab\MIPSfpga_ADT7420_C/i2c.c:121
	{
		// Set the slave I2C address
		*WRITE_IO(axiBaseAddr + TX_FIFO) = 0x100 | (i2cAddr << 1);
800025c8:	00052840 	sll	a1,a1,0x1
800025cc:	34a20100 	ori	v0,a1,0x100
800025d0:	ac820108 	sw	v0,264(a0)
800025d4:	24820108 	addiu	v0,a0,264
C:\Users\Hust\Desktop\Peripheral_Interface_lab\MIPSfpga_ADT7420_C/i2c.c:124
		
		// Set the slave register address
		*WRITE_IO(axiBaseAddr + TX_FIFO) = regAddr;
800025d8:	ac860108 	sw	a2,264(a0)
C:\Users\Hust\Desktop\Peripheral_Interface_lab\MIPSfpga_ADT7420_C/i2c.c:128
	}

	// Set the slave I2C address
	*WRITE_IO(axiBaseAddr + TX_FIFO) = 0x101 | (i2cAddr << 1);
800025dc:	34a50101 	ori	a1,a1,0x101
C:\Users\Hust\Desktop\Peripheral_Interface_lab\MIPSfpga_ADT7420_C/i2c.c:131
	
	// Start a read transaction
	*WRITE_IO(axiBaseAddr + TX_FIFO) = 0x200 + rxSize;
800025e0:	24e30200 	addiu	v1,a3,512
C:\Users\Hust\Desktop\Peripheral_Interface_lab\MIPSfpga_ADT7420_C/i2c.c:128
		// Set the slave register address
		*WRITE_IO(axiBaseAddr + TX_FIFO) = regAddr;
	}

	// Set the slave I2C address
	*WRITE_IO(axiBaseAddr + TX_FIFO) = 0x101 | (i2cAddr << 1);
800025e4:	ac450000 	sw	a1,0(v0)
C:\Users\Hust\Desktop\Peripheral_Interface_lab\MIPSfpga_ADT7420_C/i2c.c:131
	
	// Start a read transaction
	*WRITE_IO(axiBaseAddr + TX_FIFO) = 0x200 + rxSize;
800025e8:	ac430000 	sw	v1,0(v0)
C:\Users\Hust\Desktop\Peripheral_Interface_lab\MIPSfpga_ADT7420_C/i2c.c:134

	// Read data from the I2C slave
	while(rxCnt < rxSize)
800025ec:	10e0000f 	beqz	a3,8000262c <I2C_Read+0x9c>
800025f0:	00001021 	move	v0,zero
800025f4:	24860104 	addiu	a2,a0,260
C:\Users\Hust\Desktop\Peripheral_Interface_lab\MIPSfpga_ADT7420_C/i2c.c:134 (discriminator 2)
800025f8:	10000003 	b	80002608 <I2C_Read+0x78>
800025fc:	3c050100 	lui	a1,0x100
C:\Users\Hust\Desktop\Peripheral_Interface_lab\MIPSfpga_ADT7420_C/i2c.c:137 (discriminator 1)
	{
		//wait for data to be available in the RxFifo
		while((*WRITE_IO(axiBaseAddr + SR) & 0x00000040) && (timeout--));
80002600:	10a00012 	beqz	a1,8000264c <I2C_Read+0xbc>
80002604:	2403000f 	li	v1,15
C:\Users\Hust\Desktop\Peripheral_Interface_lab\MIPSfpga_ADT7420_C/i2c.c:137 (discriminator 2)
80002608:	8cc30000 	lw	v1,0(a2)
8000260c:	30630040 	andi	v1,v1,0x40
80002610:	1460fffb 	bnez	v1,80002600 <I2C_Read+0x70>
80002614:	24a5ffff 	addiu	a1,a1,-1
C:\Users\Hust\Desktop\Peripheral_Interface_lab\MIPSfpga_ADT7420_C/i2c.c:158
			return rxCnt;
		}
		timeout = 0xFFFFFF;

		//read the data
		rxBuf[rxCnt] = *READ_IO(axiBaseAddr + RX_FIFO) & 0xFFFF;
80002618:	8c85010c 	lw	a1,268(a0)
8000261c:	01021821 	addu	v1,t0,v0
C:\Users\Hust\Desktop\Peripheral_Interface_lab\MIPSfpga_ADT7420_C/i2c.c:161

		//increment the receive counter
		rxCnt++;
80002620:	24420001 	addiu	v0,v0,1
C:\Users\Hust\Desktop\Peripheral_Interface_lab\MIPSfpga_ADT7420_C/i2c.c:134
	
	// Start a read transaction
	*WRITE_IO(axiBaseAddr + TX_FIFO) = 0x200 + rxSize;

	// Read data from the I2C slave
	while(rxCnt < rxSize)
80002624:	1447fff4 	bne	v0,a3,800025f8 <I2C_Read+0x68>
80002628:	a0650000 	sb	a1,0(v1)
C:\Users\Hust\Desktop\Peripheral_Interface_lab\MIPSfpga_ADT7420_C/i2c.c:107
* @return Returns the number of bytes read.
******************************************************************************/
unsigned int I2C_Read(unsigned int axiBaseAddr, unsigned int i2cAddr, 
					  unsigned int regAddr, unsigned int rxSize, unsigned char* rxBuf)
{
	unsigned int rxCnt   = 0;
8000262c:	3c03000f 	lui	v1,0xf
80002630:	24634241 	addiu	v1,v1,16961
delay_ms():
C:\Users\Hust\Desktop\Peripheral_Interface_lab\MIPSfpga_ADT7420_C/i2c.c:65
void delay_ms(unsigned int ms_count)
{
	unsigned count;
	for (count = 0; count < ((ms_count * 100000) + 1); count++)
	{
	  asm("nop");
80002634:	00000000 	nop
80002638:	2463ffff 	addiu	v1,v1,-1
C:\Users\Hust\Desktop\Peripheral_Interface_lab\MIPSfpga_ADT7420_C/i2c.c:63
* @return None.
******************************************************************************/
void delay_ms(unsigned int ms_count)
{
	unsigned count;
	for (count = 0; count < ((ms_count * 100000) + 1); count++)
8000263c:	1460fffd 	bnez	v1,80002634 <I2C_Read+0xa4>
80002640:	00000000 	nop
80002644:	03e00008 	jr	ra
80002648:	00000000 	nop
I2C_Read():
C:\Users\Hust\Desktop\Peripheral_Interface_lab\MIPSfpga_ADT7420_C/i2c.c:142
		while((*WRITE_IO(axiBaseAddr + SR) & 0x00000040) && (timeout--));

		if(timeout == -1)
		{
			//disable the I2C core
			*WRITE_IO(axiBaseAddr + CR) = 0x00;
8000264c:	ac800100 	sw	zero,256(a0)
C:\Users\Hust\Desktop\Peripheral_Interface_lab\MIPSfpga_ADT7420_C/i2c.c:145

			//set the Rx FIFO depth to maximum
			*WRITE_IO(axiBaseAddr + RX_FIFO_PIRQ) = 0x0F;
80002650:	ac830120 	sw	v1,288(a0)
C:\Users\Hust\Desktop\Peripheral_Interface_lab\MIPSfpga_ADT7420_C/i2c.c:148

			//reset the I2C core and flush the Tx fifo
			*WRITE_IO(axiBaseAddr + CR) = 0x02;
80002654:	24030002 	li	v1,2
80002658:	ac830100 	sw	v1,256(a0)
C:\Users\Hust\Desktop\Peripheral_Interface_lab\MIPSfpga_ADT7420_C/i2c.c:151

			//enable the I2C core
			*WRITE_IO(axiBaseAddr + CR) = 0x01;
8000265c:	24030001 	li	v1,1
C:\Users\Hust\Desktop\Peripheral_Interface_lab\MIPSfpga_ADT7420_C/i2c.c:167
	}

	delay_ms(10);

	return rxCnt;
}
80002660:	03e00008 	jr	ra
80002664:	ac830100 	sw	v1,256(a0)
80002668:	1000ffdc 	b	800025dc <I2C_Read+0x4c>
8000266c:	00052840 	sll	a1,a1,0x1

80002670 <I2C_Write>:
I2C_Write():
C:\Users\Hust\Desktop\Peripheral_Interface_lab\MIPSfpga_ADT7420_C/i2c.c:186
			   unsigned int txSize, unsigned char* txBuf)
{
	unsigned int txCnt = 0;

	// Reset tx fifo
	*WRITE_IO(axiBaseAddr + CR) = 0x002;
80002670:	24020002 	li	v0,2
80002674:	ac820100 	sw	v0,256(a0)
C:\Users\Hust\Desktop\Peripheral_Interface_lab\MIPSfpga_ADT7420_C/i2c.c:182
* @param txBuf - Buffer to store the data to be transmitted.
* @return Returns the number of bytes written.
******************************************************************************/
void I2C_Write(unsigned int axiBaseAddr, unsigned int i2cAddr, unsigned int regAddr, 
			   unsigned int txSize, unsigned char* txBuf)
{
80002678:	8fa80010 	lw	t0,16(sp)
C:\Users\Hust\Desktop\Peripheral_Interface_lab\MIPSfpga_ADT7420_C/i2c.c:189

	// Reset tx fifo
	*WRITE_IO(axiBaseAddr + CR) = 0x002;
	
	// enable iic
	*WRITE_IO(axiBaseAddr + CR) = 0x001;
8000267c:	24020001 	li	v0,1
80002680:	ac820100 	sw	v0,256(a0)
80002684:	3c02000f 	lui	v0,0xf
80002688:	24424241 	addiu	v0,v0,16961
delay_ms():
C:\Users\Hust\Desktop\Peripheral_Interface_lab\MIPSfpga_ADT7420_C/i2c.c:65
void delay_ms(unsigned int ms_count)
{
	unsigned count;
	for (count = 0; count < ((ms_count * 100000) + 1); count++)
	{
	  asm("nop");
8000268c:	00000000 	nop
80002690:	2442ffff 	addiu	v0,v0,-1
C:\Users\Hust\Desktop\Peripheral_Interface_lab\MIPSfpga_ADT7420_C/i2c.c:63
* @return None.
******************************************************************************/
void delay_ms(unsigned int ms_count)
{
	unsigned count;
	for (count = 0; count < ((ms_count * 100000) + 1); count++)
80002694:	1440fffd 	bnez	v0,8000268c <I2C_Write+0x1c>
80002698:	00000000 	nop
I2C_Write():
C:\Users\Hust\Desktop\Peripheral_Interface_lab\MIPSfpga_ADT7420_C/i2c.c:194
	*WRITE_IO(axiBaseAddr + CR) = 0x001;

	delay_ms(10);

	// Set the I2C address
	*WRITE_IO(axiBaseAddr + TX_FIFO) = 0x100 | (i2cAddr << 1);
8000269c:	00051040 	sll	v0,a1,0x1
800026a0:	34420100 	ori	v0,v0,0x100
800026a4:	ac820108 	sw	v0,264(a0)
C:\Users\Hust\Desktop\Peripheral_Interface_lab\MIPSfpga_ADT7420_C/i2c.c:196

	if(regAddr != -1)
800026a8:	2402ffff 	li	v0,-1
800026ac:	10c20002 	beq	a2,v0,800026b8 <I2C_Write+0x48>
800026b0:	24850108 	addiu	a1,a0,264
C:\Users\Hust\Desktop\Peripheral_Interface_lab\MIPSfpga_ADT7420_C/i2c.c:199
	{
		// Set the slave register address
		*WRITE_IO(axiBaseAddr + TX_FIFO) = regAddr;
800026b4:	ac860108 	sw	a2,264(a0)
C:\Users\Hust\Desktop\Peripheral_Interface_lab\MIPSfpga_ADT7420_C/i2c.c:203
	}

	// Write data to the I2C slave
	while(txCnt < txSize)
800026b8:	10e00009 	beqz	a3,800026e0 <I2C_Write+0x70>
800026bc:	00001021 	move	v0,zero
800026c0:	24e4ffff 	addiu	a0,a3,-1
C:\Users\Hust\Desktop\Peripheral_Interface_lab\MIPSfpga_ADT7420_C/i2c.c:206
	{
		// put the Tx data into the Tx FIFO
		*WRITE_IO(axiBaseAddr + TX_FIFO) = (txCnt == txSize - 1) ? (0x200 | txBuf[txCnt]) : txBuf[txCnt];
800026c4:	01043021 	addu	a2,t0,a0
800026c8:	5082000d 	beql	a0,v0,80002700 <I2C_Write+0x90>
800026cc:	90c30000 	lbu	v1,0(a2)
C:\Users\Hust\Desktop\Peripheral_Interface_lab\MIPSfpga_ADT7420_C/i2c.c:206 (discriminator 2)
800026d0:	7d02198a 	lbux	v1,v0(t0)
C:\Users\Hust\Desktop\Peripheral_Interface_lab\MIPSfpga_ADT7420_C/i2c.c:207 (discriminator 4)
		txCnt++;
800026d4:	24420001 	addiu	v0,v0,1
C:\Users\Hust\Desktop\Peripheral_Interface_lab\MIPSfpga_ADT7420_C/i2c.c:203 (discriminator 4)
		// Set the slave register address
		*WRITE_IO(axiBaseAddr + TX_FIFO) = regAddr;
	}

	// Write data to the I2C slave
	while(txCnt < txSize)
800026d8:	1447fffb 	bne	v0,a3,800026c8 <I2C_Write+0x58>
800026dc:	aca30000 	sw	v1,0(a1)
C:\Users\Hust\Desktop\Peripheral_Interface_lab\MIPSfpga_ADT7420_C/i2c.c:203
800026e0:	3c02000f 	lui	v0,0xf
800026e4:	24424241 	addiu	v0,v0,16961
delay_ms():
C:\Users\Hust\Desktop\Peripheral_Interface_lab\MIPSfpga_ADT7420_C/i2c.c:65
void delay_ms(unsigned int ms_count)
{
	unsigned count;
	for (count = 0; count < ((ms_count * 100000) + 1); count++)
	{
	  asm("nop");
800026e8:	00000000 	nop
800026ec:	2442ffff 	addiu	v0,v0,-1
C:\Users\Hust\Desktop\Peripheral_Interface_lab\MIPSfpga_ADT7420_C/i2c.c:63
* @return None.
******************************************************************************/
void delay_ms(unsigned int ms_count)
{
	unsigned count;
	for (count = 0; count < ((ms_count * 100000) + 1); count++)
800026f0:	1440fffd 	bnez	v0,800026e8 <I2C_Write+0x78>
800026f4:	00000000 	nop
800026f8:	03e00008 	jr	ra
800026fc:	00000000 	nop
I2C_Write():
80002700:	1000fff4 	b	800026d4 <I2C_Write+0x64>
80002704:	34630200 	ori	v1,v1,0x200

80002708 <main>:
main():
C:\Users\Hust\Desktop\Peripheral_Interface_lab\MIPSfpga_ADT7420_C/main.c:54


//------------------
// main()
//------------------
int main() {
80002708:	27bdff98 	addiu	sp,sp,-104
C:\Users\Hust\Desktop\Peripheral_Interface_lab\MIPSfpga_ADT7420_C/main.c:55
	volatile unsigned int pushbutton, count = 0xF;
8000270c:	2402000f 	li	v0,15
80002710:	afa20040 	sw	v0,64(sp)
C:\Users\Hust\Desktop\Peripheral_Interface_lab\MIPSfpga_ADT7420_C/main.c:56
	volatile unsigned int j = 1;
80002714:	24020001 	li	v0,1
80002718:	afa2003c 	sw	v0,60(sp)
C:\Users\Hust\Desktop\Peripheral_Interface_lab\MIPSfpga_ADT7420_C/main.c:58

	*WRITE_IO(UART_BASE + lcr) = 0x00000080; // LCR[7]  is 1
8000271c:	24030080 	li	v1,128
80002720:	3c02b040 	lui	v0,0xb040
C:\Users\Hust\Desktop\Peripheral_Interface_lab\MIPSfpga_ADT7420_C/main.c:54


//------------------
// main()
//------------------
int main() {
80002724:	afbf0064 	sw	ra,100(sp)
80002728:	afb50060 	sw	s5,96(sp)
8000272c:	afb4005c 	sw	s4,92(sp)
80002730:	afb30058 	sw	s3,88(sp)
80002734:	afb20054 	sw	s2,84(sp)
80002738:	afb10050 	sw	s1,80(sp)
8000273c:	afb0004c 	sw	s0,76(sp)
C:\Users\Hust\Desktop\Peripheral_Interface_lab\MIPSfpga_ADT7420_C/main.c:58
	volatile unsigned int pushbutton, count = 0xF;
	volatile unsigned int j = 1;

	*WRITE_IO(UART_BASE + lcr) = 0x00000080; // LCR[7]  is 1
80002740:	ac43100c 	sw	v1,4108(v0)
delay():
C:\Users\Hust\Desktop\Peripheral_Interface_lab\MIPSfpga_ADT7420_C/main.c:132
}

void delay() {
	volatile unsigned int j;

	for (j = 0; j < (10000); j++) ;	// delay 
80002744:	afa00038 	sw	zero,56(sp)
80002748:	8fa20038 	lw	v0,56(sp)
8000274c:	2c422710 	sltiu	v0,v0,10000
80002750:	10400008 	beqz	v0,80002774 <main+0x6c>
80002754:	3c02b040 	lui	v0,0xb040
80002758:	8fa20038 	lw	v0,56(sp)
8000275c:	24420001 	addiu	v0,v0,1
80002760:	afa20038 	sw	v0,56(sp)
80002764:	8fa20038 	lw	v0,56(sp)
80002768:	2c422710 	sltiu	v0,v0,10000
8000276c:	1440fffa 	bnez	v0,80002758 <main+0x50>
80002770:	3c02b040 	lui	v0,0xb040
main():
C:\Users\Hust\Desktop\Peripheral_Interface_lab\MIPSfpga_ADT7420_C/main.c:60
	volatile unsigned int pushbutton, count = 0xF;
	volatile unsigned int j = 1;

	*WRITE_IO(UART_BASE + lcr) = 0x00000080; // LCR[7]  is 1
	delay();
	*WRITE_IO(UART_BASE + dll) = 27; // DLL msb. 115200 at 50MHz. Formula is Clk/16/baudrate. From axi_uart manual.
80002774:	2403001b 	li	v1,27
80002778:	ac431000 	sw	v1,4096(v0)
delay():
C:\Users\Hust\Desktop\Peripheral_Interface_lab\MIPSfpga_ADT7420_C/main.c:132
}

void delay() {
	volatile unsigned int j;

	for (j = 0; j < (10000); j++) ;	// delay 
8000277c:	afa00034 	sw	zero,52(sp)
80002780:	8fa20034 	lw	v0,52(sp)
80002784:	2c422710 	sltiu	v0,v0,10000
80002788:	10400008 	beqz	v0,800027ac <main+0xa4>
8000278c:	3c02b040 	lui	v0,0xb040
80002790:	8fa20034 	lw	v0,52(sp)
80002794:	24420001 	addiu	v0,v0,1
80002798:	afa20034 	sw	v0,52(sp)
8000279c:	8fa20034 	lw	v0,52(sp)
800027a0:	2c422710 	sltiu	v0,v0,10000
800027a4:	1440fffa 	bnez	v0,80002790 <main+0x88>
800027a8:	3c02b040 	lui	v0,0xb040
main():
C:\Users\Hust\Desktop\Peripheral_Interface_lab\MIPSfpga_ADT7420_C/main.c:62

	*WRITE_IO(UART_BASE + lcr) = 0x00000080; // LCR[7]  is 1
	delay();
	*WRITE_IO(UART_BASE + dll) = 27; // DLL msb. 115200 at 50MHz. Formula is Clk/16/baudrate. From axi_uart manual.
	delay();
	*WRITE_IO(UART_BASE + dlm) = 0x00000000; // DLL lsb.
800027ac:	ac401004 	sw	zero,4100(v0)
delay():
C:\Users\Hust\Desktop\Peripheral_Interface_lab\MIPSfpga_ADT7420_C/main.c:132
}

void delay() {
	volatile unsigned int j;

	for (j = 0; j < (10000); j++) ;	// delay 
800027b0:	afa00030 	sw	zero,48(sp)
800027b4:	8fa20030 	lw	v0,48(sp)
800027b8:	2c422710 	sltiu	v0,v0,10000
800027bc:	10400008 	beqz	v0,800027e0 <main+0xd8>
800027c0:	3c02b040 	lui	v0,0xb040
800027c4:	8fa20030 	lw	v0,48(sp)
800027c8:	24420001 	addiu	v0,v0,1
800027cc:	afa20030 	sw	v0,48(sp)
800027d0:	8fa20030 	lw	v0,48(sp)
800027d4:	2c422710 	sltiu	v0,v0,10000
800027d8:	1440fffa 	bnez	v0,800027c4 <main+0xbc>
800027dc:	3c02b040 	lui	v0,0xb040
main():
C:\Users\Hust\Desktop\Peripheral_Interface_lab\MIPSfpga_ADT7420_C/main.c:64
	delay();
	*WRITE_IO(UART_BASE + dll) = 27; // DLL msb. 115200 at 50MHz. Formula is Clk/16/baudrate. From axi_uart manual.
	delay();
	*WRITE_IO(UART_BASE + dlm) = 0x00000000; // DLL lsb.
	delay();
	*WRITE_IO(UART_BASE + lcr) = 0x00000003; // LCR register. 8n1 parity disabled
800027e0:	24030003 	li	v1,3
800027e4:	ac43100c 	sw	v1,4108(v0)
delay():
C:\Users\Hust\Desktop\Peripheral_Interface_lab\MIPSfpga_ADT7420_C/main.c:132
}

void delay() {
	volatile unsigned int j;

	for (j = 0; j < (10000); j++) ;	// delay 
800027e8:	afa0002c 	sw	zero,44(sp)
800027ec:	8fa2002c 	lw	v0,44(sp)
800027f0:	2c422710 	sltiu	v0,v0,10000
800027f4:	10400008 	beqz	v0,80002818 <main+0x110>
800027f8:	3c02b040 	lui	v0,0xb040
800027fc:	8fa2002c 	lw	v0,44(sp)
80002800:	24420001 	addiu	v0,v0,1
80002804:	afa2002c 	sw	v0,44(sp)
80002808:	8fa2002c 	lw	v0,44(sp)
8000280c:	2c422710 	sltiu	v0,v0,10000
80002810:	1440fffa 	bnez	v0,800027fc <main+0xf4>
80002814:	3c02b040 	lui	v0,0xb040
main():
C:\Users\Hust\Desktop\Peripheral_Interface_lab\MIPSfpga_ADT7420_C/main.c:66
	delay();
	*WRITE_IO(UART_BASE + dlm) = 0x00000000; // DLL lsb.
	delay();
	*WRITE_IO(UART_BASE + lcr) = 0x00000003; // LCR register. 8n1 parity disabled
	delay();
	*WRITE_IO(UART_BASE + ier) = 0x00000000; // IER register. disable interrupts
80002818:	ac401004 	sw	zero,4100(v0)
delay():
C:\Users\Hust\Desktop\Peripheral_Interface_lab\MIPSfpga_ADT7420_C/main.c:132
}

void delay() {
	volatile unsigned int j;

	for (j = 0; j < (10000); j++) ;	// delay 
8000281c:	afa00028 	sw	zero,40(sp)
80002820:	8fa20028 	lw	v0,40(sp)
80002824:	2c422710 	sltiu	v0,v0,10000
80002828:	10400008 	beqz	v0,8000284c <main+0x144>
8000282c:	3c02b040 	lui	v0,0xb040
80002830:	8fa20028 	lw	v0,40(sp)
80002834:	24420001 	addiu	v0,v0,1
80002838:	afa20028 	sw	v0,40(sp)
8000283c:	8fa20028 	lw	v0,40(sp)
80002840:	2c422710 	sltiu	v0,v0,10000
80002844:	1440fffa 	bnez	v0,80002830 <main+0x128>
80002848:	3c02b040 	lui	v0,0xb040
main():
C:\Users\Hust\Desktop\Peripheral_Interface_lab\MIPSfpga_ADT7420_C/main.c:69
	*WRITE_IO(UART_BASE + lcr) = 0x00000003; // LCR register. 8n1 parity disabled
	delay();
	*WRITE_IO(UART_BASE + ier) = 0x00000000; // IER register. disable interrupts
	delay();
		
	*WRITE_IO(UART_BASE + ier) = 0x00000001; // IER register. Enables Receiver Line Status and Received Data Interrupts
8000284c:	24030001 	li	v1,1
80002850:	ac431004 	sw	v1,4100(v0)
delay():
C:\Users\Hust\Desktop\Peripheral_Interface_lab\MIPSfpga_ADT7420_C/main.c:132
}

void delay() {
	volatile unsigned int j;

	for (j = 0; j < (10000); j++) ;	// delay 
80002854:	afa00024 	sw	zero,36(sp)
80002858:	8fa20024 	lw	v0,36(sp)
8000285c:	2c422710 	sltiu	v0,v0,10000
80002860:	10400008 	beqz	v0,80002884 <main+0x17c>
80002864:	00000000 	nop
80002868:	8fa20024 	lw	v0,36(sp)
8000286c:	24420001 	addiu	v0,v0,1
80002870:	afa20024 	sw	v0,36(sp)
80002874:	8fa20024 	lw	v0,36(sp)
80002878:	2c422710 	sltiu	v0,v0,10000
8000287c:	1440fffa 	bnez	v0,80002868 <main+0x160>
80002880:	00000000 	nop
main():
C:\Users\Hust\Desktop\Peripheral_Interface_lab\MIPSfpga_ADT7420_C/main.c:74
	*WRITE_IO(UART_BASE + ier) = 0x00000001; // IER register. Enables Receiver Line Status and Received Data Interrupts
	delay();
	
	// Begin ADT7420 test
	// Initialize ADT7420 Device
	ADT7420_Init();
80002884:	0c0004aa 	jal	800012a8 <ADT7420_Init>
80002888:	24110071 	li	s1,113
C:\Users\Hust\Desktop\Peripheral_Interface_lab\MIPSfpga_ADT7420_C/main.c:77
    
	// Display Main Menu on UART
	ADT7420_DisplayMainMenu();
8000288c:	0c000505 	jal	80001414 <ADT7420_DisplayMainMenu>
80002890:	3c138000 	lui	s3,0x8000
uart_outbyte():
C:\Users\Hust\Desktop\Peripheral_Interface_lab\MIPSfpga_ADT7420_C/main.c:136

	for (j = 0; j < (10000); j++) ;	// delay 
}

void uart_outbyte(char c) {
	*WRITE_IO(UART_BASE + thr) = (unsigned int) c;
80002894:	3c15b040 	lui	s5,0xb040
main():
80002898:	3c128000 	lui	s2,0x8000
C:\Users\Hust\Desktop\Peripheral_Interface_lab\MIPSfpga_ADT7420_C/main.c:87
		uart_print(my_itoa(rxData));
		uart_print("\n\r");
		
		Display_Temp(ADT7420_ReadTemp());
		
		switch(rxData)
8000289c:	3c148000 	lui	s4,0x8000
800028a0:	2410006c 	li	s0,108
C:\Users\Hust\Desktop\Peripheral_Interface_lab\MIPSfpga_ADT7420_C/main.c:79
	ADT7420_Init();
    
	// Display Main Menu on UART
	ADT7420_DisplayMainMenu();
	
	while(rxData != 'q')
800028a4:	8f828008 	lw	v0,-32760(gp)
800028a8:	10510096 	beq	v0,s1,80002b04 <main+0x3fc>
800028ac:	26632b7c 	addiu	v1,s3,11132
800028b0:	24020072 	li	v0,114
uart_outbyte():
C:\Users\Hust\Desktop\Peripheral_Interface_lab\MIPSfpga_ADT7420_C/main.c:136

	for (j = 0; j < (10000); j++) ;	// delay 
}

void uart_outbyte(char c) {
	*WRITE_IO(UART_BASE + thr) = (unsigned int) c;
800028b4:	aea21000 	sw	v0,4096(s5)
delay():
C:\Users\Hust\Desktop\Peripheral_Interface_lab\MIPSfpga_ADT7420_C/main.c:132
}

void delay() {
	volatile unsigned int j;

	for (j = 0; j < (10000); j++) ;	// delay 
800028b8:	afa00020 	sw	zero,32(sp)
800028bc:	8fa20020 	lw	v0,32(sp)
800028c0:	2c422710 	sltiu	v0,v0,10000
800028c4:	50400009 	beqzl	v0,800028ec <main+0x1e4>
800028c8:	24630001 	addiu	v1,v1,1
800028cc:	8fa20020 	lw	v0,32(sp)
800028d0:	24420001 	addiu	v0,v0,1
800028d4:	afa20020 	sw	v0,32(sp)
800028d8:	8fa20020 	lw	v0,32(sp)
800028dc:	2c422710 	sltiu	v0,v0,10000
800028e0:	1440fffa 	bnez	v0,800028cc <main+0x1c4>
800028e4:	00000000 	nop
uart_print():
C:\Users\Hust\Desktop\Peripheral_Interface_lab\MIPSfpga_ADT7420_C/main.c:154

void uart_print(const char *ptr)
{
	while (*ptr) {
		uart_outbyte (*ptr);
		ptr++;
800028e8:	24630001 	addiu	v1,v1,1
C:\Users\Hust\Desktop\Peripheral_Interface_lab\MIPSfpga_ADT7420_C/main.c:152
	return (char)RecievedByte;
}

void uart_print(const char *ptr)
{
	while (*ptr) {
800028ec:	90620000 	lbu	v0,0(v1)
800028f0:	1440fff0 	bnez	v0,800028b4 <main+0x1ac>
800028f4:	00000000 	nop
main():
C:\Users\Hust\Desktop\Peripheral_Interface_lab\MIPSfpga_ADT7420_C/main.c:82
	ADT7420_DisplayMainMenu();
	
	while(rxData != 'q')
    {
    	uart_print("rxData = ");
		uart_print(my_itoa(rxData));
800028f8:	8f848008 	lw	a0,-32760(gp)
800028fc:	0c000467 	jal	8000119c <my_itoa>
80002900:	00000000 	nop
uart_print():
C:\Users\Hust\Desktop\Peripheral_Interface_lab\MIPSfpga_ADT7420_C/main.c:152
	return (char)RecievedByte;
}

void uart_print(const char *ptr)
{
	while (*ptr) {
80002904:	90430000 	lbu	v1,0(v0)
80002908:	50600013 	beqzl	v1,80002958 <main+0x250>
8000290c:	26433324 	addiu	v1,s2,13092
uart_outbyte():
C:\Users\Hust\Desktop\Peripheral_Interface_lab\MIPSfpga_ADT7420_C/main.c:136

	for (j = 0; j < (10000); j++) ;	// delay 
}

void uart_outbyte(char c) {
	*WRITE_IO(UART_BASE + thr) = (unsigned int) c;
80002910:	aea31000 	sw	v1,4096(s5)
delay():
C:\Users\Hust\Desktop\Peripheral_Interface_lab\MIPSfpga_ADT7420_C/main.c:132
}

void delay() {
	volatile unsigned int j;

	for (j = 0; j < (10000); j++) ;	// delay 
80002914:	afa0001c 	sw	zero,28(sp)
80002918:	8fa3001c 	lw	v1,28(sp)
8000291c:	2c632710 	sltiu	v1,v1,10000
80002920:	50600009 	beqzl	v1,80002948 <main+0x240>
80002924:	24420001 	addiu	v0,v0,1
80002928:	8fa3001c 	lw	v1,28(sp)
8000292c:	24630001 	addiu	v1,v1,1
80002930:	afa3001c 	sw	v1,28(sp)
80002934:	8fa3001c 	lw	v1,28(sp)
80002938:	2c632710 	sltiu	v1,v1,10000
8000293c:	1460fffa 	bnez	v1,80002928 <main+0x220>
80002940:	00000000 	nop
uart_print():
C:\Users\Hust\Desktop\Peripheral_Interface_lab\MIPSfpga_ADT7420_C/main.c:154

void uart_print(const char *ptr)
{
	while (*ptr) {
		uart_outbyte (*ptr);
		ptr++;
80002944:	24420001 	addiu	v0,v0,1
C:\Users\Hust\Desktop\Peripheral_Interface_lab\MIPSfpga_ADT7420_C/main.c:152
	return (char)RecievedByte;
}

void uart_print(const char *ptr)
{
	while (*ptr) {
80002948:	90430000 	lbu	v1,0(v0)
8000294c:	1460fff0 	bnez	v1,80002910 <main+0x208>
80002950:	00000000 	nop
main():
80002954:	26433324 	addiu	v1,s2,13092
80002958:	2402000a 	li	v0,10
uart_outbyte():
C:\Users\Hust\Desktop\Peripheral_Interface_lab\MIPSfpga_ADT7420_C/main.c:136

	for (j = 0; j < (10000); j++) ;	// delay 
}

void uart_outbyte(char c) {
	*WRITE_IO(UART_BASE + thr) = (unsigned int) c;
8000295c:	aea21000 	sw	v0,4096(s5)
delay():
C:\Users\Hust\Desktop\Peripheral_Interface_lab\MIPSfpga_ADT7420_C/main.c:132
}

void delay() {
	volatile unsigned int j;

	for (j = 0; j < (10000); j++) ;	// delay 
80002960:	afa00018 	sw	zero,24(sp)
80002964:	8fa20018 	lw	v0,24(sp)
80002968:	2c422710 	sltiu	v0,v0,10000
8000296c:	50400009 	beqzl	v0,80002994 <main+0x28c>
80002970:	24630001 	addiu	v1,v1,1
80002974:	8fa20018 	lw	v0,24(sp)
80002978:	24420001 	addiu	v0,v0,1
8000297c:	afa20018 	sw	v0,24(sp)
80002980:	8fa20018 	lw	v0,24(sp)
80002984:	2c422710 	sltiu	v0,v0,10000
80002988:	1440fffa 	bnez	v0,80002974 <main+0x26c>
8000298c:	00000000 	nop
uart_print():
C:\Users\Hust\Desktop\Peripheral_Interface_lab\MIPSfpga_ADT7420_C/main.c:154

void uart_print(const char *ptr)
{
	while (*ptr) {
		uart_outbyte (*ptr);
		ptr++;
80002990:	24630001 	addiu	v1,v1,1
C:\Users\Hust\Desktop\Peripheral_Interface_lab\MIPSfpga_ADT7420_C/main.c:152
	return (char)RecievedByte;
}

void uart_print(const char *ptr)
{
	while (*ptr) {
80002994:	90620000 	lbu	v0,0(v1)
80002998:	1440fff0 	bnez	v0,8000295c <main+0x254>
8000299c:	00000000 	nop
main():
C:\Users\Hust\Desktop\Peripheral_Interface_lab\MIPSfpga_ADT7420_C/main.c:85
    {
    	uart_print("rxData = ");
		uart_print(my_itoa(rxData));
		uart_print("\n\r");
		
		Display_Temp(ADT7420_ReadTemp());
800029a0:	0c0005de 	jal	80001778 <ADT7420_ReadTemp>
800029a4:	00000000 	nop
800029a8:	0c0005fb 	jal	800017ec <Display_Temp>
800029ac:	7c022620 	seh	a0,v0
C:\Users\Hust\Desktop\Peripheral_Interface_lab\MIPSfpga_ADT7420_C/main.c:87
		
		switch(rxData)
800029b0:	8f828008 	lw	v0,-32760(gp)
800029b4:	1050003d 	beq	v0,s0,80002aac <main+0x3a4>
800029b8:	2843006d 	slti	v1,v0,109
800029bc:	1460000e 	bnez	v1,800029f8 <main+0x2f0>
800029c0:	24030073 	li	v1,115
800029c4:	1043003d 	beq	v0,v1,80002abc <main+0x3b4>
800029c8:	28430074 	slti	v1,v0,116
800029cc:	10600017 	beqz	v1,80002a2c <main+0x324>
800029d0:	24030074 	li	v1,116
800029d4:	2403006d 	li	v1,109
800029d8:	10430030 	beq	v0,v1,80002a9c <main+0x394>
800029dc:	24030072 	li	v1,114
800029e0:	1443001c 	bne	v0,v1,80002a54 <main+0x34c>
800029e4:	26832b88 	addiu	v1,s4,11144
C:\Users\Hust\Desktop\Peripheral_Interface_lab\MIPSfpga_ADT7420_C/main.c:93
    	{
    	case 't':
    		Display_Temp(ADT7420_ReadTemp());
    		break;
    	case 'r':
    		ADT7420_SetResolution();
800029e8:	0c000595 	jal	80001654 <ADT7420_SetResolution>
800029ec:	2410006c 	li	s0,108
C:\Users\Hust\Desktop\Peripheral_Interface_lab\MIPSfpga_ADT7420_C/main.c:94
    		break;
800029f0:	1000ffac 	b	800028a4 <main+0x19c>
800029f4:	00000000 	nop
C:\Users\Hust\Desktop\Peripheral_Interface_lab\MIPSfpga_ADT7420_C/main.c:87
		uart_print(my_itoa(rxData));
		uart_print("\n\r");
		
		Display_Temp(ADT7420_ReadTemp());
		
		switch(rxData)
800029f8:	24030063 	li	v1,99
800029fc:	10430037 	beq	v0,v1,80002adc <main+0x3d4>
80002a00:	28430064 	slti	v1,v0,100
80002a04:	14600011 	bnez	v1,80002a4c <main+0x344>
80002a08:	24030066 	li	v1,102
80002a0c:	1043002f 	beq	v0,v1,80002acc <main+0x3c4>
80002a10:	24030068 	li	v1,104
80002a14:	1443000f 	bne	v0,v1,80002a54 <main+0x34c>
80002a18:	26832b88 	addiu	v1,s4,11144
C:\Users\Hust\Desktop\Peripheral_Interface_lab\MIPSfpga_ADT7420_C/main.c:96
    		break;
    	case 'r':
    		ADT7420_SetResolution();
    		break;
    	case 'h':
    		ADT7420_DisplaySetTHighMenu();
80002a1c:	0c0006a6 	jal	80001a98 <ADT7420_DisplaySetTHighMenu>
80002a20:	2410006c 	li	s0,108
C:\Users\Hust\Desktop\Peripheral_Interface_lab\MIPSfpga_ADT7420_C/main.c:97
    		break;
80002a24:	1000ff9f 	b	800028a4 <main+0x19c>
80002a28:	00000000 	nop
C:\Users\Hust\Desktop\Peripheral_Interface_lab\MIPSfpga_ADT7420_C/main.c:87
		uart_print(my_itoa(rxData));
		uart_print("\n\r");
		
		Display_Temp(ADT7420_ReadTemp());
		
		switch(rxData)
80002a2c:	1043002f 	beq	v0,v1,80002aec <main+0x3e4>
80002a30:	24030079 	li	v1,121
80002a34:	14430007 	bne	v0,v1,80002a54 <main+0x34c>
80002a38:	26832b88 	addiu	v1,s4,11144
C:\Users\Hust\Desktop\Peripheral_Interface_lab\MIPSfpga_ADT7420_C/main.c:105
    		break;
    	case 'c':
    		ADT7420_DisplaySetTCritMenu();
    		break;
        case 'y':
        	ADT7420_DisplaySetTHystMenu();
80002a3c:	0c000814 	jal	80002050 <ADT7420_DisplaySetTHystMenu>
80002a40:	2410006c 	li	s0,108
C:\Users\Hust\Desktop\Peripheral_Interface_lab\MIPSfpga_ADT7420_C/main.c:106
    		break;
80002a44:	1000ff97 	b	800028a4 <main+0x19c>
80002a48:	00000000 	nop
C:\Users\Hust\Desktop\Peripheral_Interface_lab\MIPSfpga_ADT7420_C/main.c:87
		uart_print(my_itoa(rxData));
		uart_print("\n\r");
		
		Display_Temp(ADT7420_ReadTemp());
		
		switch(rxData)
80002a4c:	1040ff95 	beqz	v0,800028a4 <main+0x19c>
80002a50:	26832b88 	addiu	v1,s4,11144
80002a54:	2402000a 	li	v0,10
uart_outbyte():
C:\Users\Hust\Desktop\Peripheral_Interface_lab\MIPSfpga_ADT7420_C/main.c:136

	for (j = 0; j < (10000); j++) ;	// delay 
}

void uart_outbyte(char c) {
	*WRITE_IO(UART_BASE + thr) = (unsigned int) c;
80002a58:	aea21000 	sw	v0,4096(s5)
delay():
C:\Users\Hust\Desktop\Peripheral_Interface_lab\MIPSfpga_ADT7420_C/main.c:132
}

void delay() {
	volatile unsigned int j;

	for (j = 0; j < (10000); j++) ;	// delay 
80002a5c:	afa00014 	sw	zero,20(sp)
80002a60:	8fa20014 	lw	v0,20(sp)
80002a64:	2c422710 	sltiu	v0,v0,10000
80002a68:	50400009 	beqzl	v0,80002a90 <main+0x388>
80002a6c:	24630001 	addiu	v1,v1,1
80002a70:	8fa20014 	lw	v0,20(sp)
80002a74:	24420001 	addiu	v0,v0,1
80002a78:	afa20014 	sw	v0,20(sp)
80002a7c:	8fa20014 	lw	v0,20(sp)
80002a80:	2c422710 	sltiu	v0,v0,10000
80002a84:	1440fffa 	bnez	v0,80002a70 <main+0x368>
80002a88:	00000000 	nop
uart_print():
C:\Users\Hust\Desktop\Peripheral_Interface_lab\MIPSfpga_ADT7420_C/main.c:154

void uart_print(const char *ptr)
{
	while (*ptr) {
		uart_outbyte (*ptr);
		ptr++;
80002a8c:	24630001 	addiu	v1,v1,1
C:\Users\Hust\Desktop\Peripheral_Interface_lab\MIPSfpga_ADT7420_C/main.c:152
	return (char)RecievedByte;
}

void uart_print(const char *ptr)
{
	while (*ptr) {
80002a90:	90620000 	lbu	v0,0(v1)
80002a94:	1440fff0 	bnez	v0,80002a58 <main+0x350>
80002a98:	00000000 	nop
main():
C:\Users\Hust\Desktop\Peripheral_Interface_lab\MIPSfpga_ADT7420_C/main.c:120
    		break;
    	case 0:
    		break;
    	default:
    		uart_print("\n\rWrong option! Please select one of the options below.");
    		ADT7420_DisplayMenu();
80002a9c:	0c000535 	jal	800014d4 <ADT7420_DisplayMenu>
80002aa0:	2410006c 	li	s0,108
C:\Users\Hust\Desktop\Peripheral_Interface_lab\MIPSfpga_ADT7420_C/main.c:121
    		break;
80002aa4:	1000ff7f 	b	800028a4 <main+0x19c>
80002aa8:	00000000 	nop
C:\Users\Hust\Desktop\Peripheral_Interface_lab\MIPSfpga_ADT7420_C/main.c:99
    		break;
    	case 'h':
    		ADT7420_DisplaySetTHighMenu();
    		break;
    	case 'l':
    		ADT7420_DisplaySetTLowMenu();
80002aac:	0c000728 	jal	80001ca0 <ADT7420_DisplaySetTLowMenu>
80002ab0:	2410006c 	li	s0,108
C:\Users\Hust\Desktop\Peripheral_Interface_lab\MIPSfpga_ADT7420_C/main.c:100
    		break;
80002ab4:	1000ff7b 	b	800028a4 <main+0x19c>
80002ab8:	00000000 	nop
C:\Users\Hust\Desktop\Peripheral_Interface_lab\MIPSfpga_ADT7420_C/main.c:111
    		break;
    	case 'f':
    		ADT7420_DisplaySetFaultQueueMenu();
    		break;
    	case 's':
			ADT7420_DisplaySettings();
80002abc:	0c000926 	jal	80002498 <ADT7420_DisplaySettings>
80002ac0:	2410006c 	li	s0,108
C:\Users\Hust\Desktop\Peripheral_Interface_lab\MIPSfpga_ADT7420_C/main.c:112
			break;
80002ac4:	1000ff77 	b	800028a4 <main+0x19c>
80002ac8:	00000000 	nop
C:\Users\Hust\Desktop\Peripheral_Interface_lab\MIPSfpga_ADT7420_C/main.c:108
    		break;
        case 'y':
        	ADT7420_DisplaySetTHystMenu();
    		break;
    	case 'f':
    		ADT7420_DisplaySetFaultQueueMenu();
80002acc:	0c00085d 	jal	80002174 <ADT7420_DisplaySetFaultQueueMenu>
80002ad0:	2410006c 	li	s0,108
C:\Users\Hust\Desktop\Peripheral_Interface_lab\MIPSfpga_ADT7420_C/main.c:109
    		break;
80002ad4:	1000ff73 	b	800028a4 <main+0x19c>
80002ad8:	00000000 	nop
C:\Users\Hust\Desktop\Peripheral_Interface_lab\MIPSfpga_ADT7420_C/main.c:102
    		break;
    	case 'l':
    		ADT7420_DisplaySetTLowMenu();
    		break;
    	case 'c':
    		ADT7420_DisplaySetTCritMenu();
80002adc:	0c0007aa 	jal	80001ea8 <ADT7420_DisplaySetTCritMenu>
80002ae0:	2410006c 	li	s0,108
C:\Users\Hust\Desktop\Peripheral_Interface_lab\MIPSfpga_ADT7420_C/main.c:103
    		break;
80002ae4:	1000ff6f 	b	800028a4 <main+0x19c>
80002ae8:	00000000 	nop
C:\Users\Hust\Desktop\Peripheral_Interface_lab\MIPSfpga_ADT7420_C/main.c:90
		Display_Temp(ADT7420_ReadTemp());
		
		switch(rxData)
    	{
    	case 't':
    		Display_Temp(ADT7420_ReadTemp());
80002aec:	0c0005de 	jal	80001778 <ADT7420_ReadTemp>
80002af0:	2410006c 	li	s0,108
80002af4:	0c0005fb 	jal	800017ec <Display_Temp>
80002af8:	7c022620 	seh	a0,v0
C:\Users\Hust\Desktop\Peripheral_Interface_lab\MIPSfpga_ADT7420_C/main.c:91
    		break;
80002afc:	1000ff69 	b	800028a4 <main+0x19c>
80002b00:	00000000 	nop
80002b04:	3c038000 	lui	v1,0x8000
80002b08:	24632bc0 	addiu	v1,v1,11200
80002b0c:	24020045 	li	v0,69
uart_outbyte():
C:\Users\Hust\Desktop\Peripheral_Interface_lab\MIPSfpga_ADT7420_C/main.c:136

	for (j = 0; j < (10000); j++) ;	// delay 
}

void uart_outbyte(char c) {
	*WRITE_IO(UART_BASE + thr) = (unsigned int) c;
80002b10:	3c04b040 	lui	a0,0xb040
80002b14:	ac821000 	sw	v0,4096(a0)
delay():
C:\Users\Hust\Desktop\Peripheral_Interface_lab\MIPSfpga_ADT7420_C/main.c:132
}

void delay() {
	volatile unsigned int j;

	for (j = 0; j < (10000); j++) ;	// delay 
80002b18:	afa00010 	sw	zero,16(sp)
80002b1c:	8fa20010 	lw	v0,16(sp)
80002b20:	2c422710 	sltiu	v0,v0,10000
80002b24:	50400009 	beqzl	v0,80002b4c <main+0x444>
80002b28:	24630001 	addiu	v1,v1,1
80002b2c:	8fa20010 	lw	v0,16(sp)
80002b30:	24420001 	addiu	v0,v0,1
80002b34:	afa20010 	sw	v0,16(sp)
80002b38:	8fa20010 	lw	v0,16(sp)
80002b3c:	2c422710 	sltiu	v0,v0,10000
80002b40:	1440fffa 	bnez	v0,80002b2c <main+0x424>
80002b44:	00000000 	nop
uart_print():
C:\Users\Hust\Desktop\Peripheral_Interface_lab\MIPSfpga_ADT7420_C/main.c:154

void uart_print(const char *ptr)
{
	while (*ptr) {
		uart_outbyte (*ptr);
		ptr++;
80002b48:	24630001 	addiu	v1,v1,1
C:\Users\Hust\Desktop\Peripheral_Interface_lab\MIPSfpga_ADT7420_C/main.c:152
	return (char)RecievedByte;
}

void uart_print(const char *ptr)
{
	while (*ptr) {
80002b4c:	90620000 	lbu	v0,0(v1)
80002b50:	1440fff0 	bnez	v0,80002b14 <main+0x40c>
80002b54:	8fbf0064 	lw	ra,100(sp)
main():
C:\Users\Hust\Desktop\Peripheral_Interface_lab\MIPSfpga_ADT7420_C/main.c:127
    	}
    }
	
	uart_print("Exiting ADT7420 test application!\n\r");
	return 0;
}
80002b58:	8fb50060 	lw	s5,96(sp)
80002b5c:	8fb4005c 	lw	s4,92(sp)
80002b60:	8fb30058 	lw	s3,88(sp)
80002b64:	8fb20054 	lw	s2,84(sp)
80002b68:	8fb10050 	lw	s1,80(sp)
80002b6c:	8fb0004c 	lw	s0,76(sp)
80002b70:	00001021 	move	v0,zero
80002b74:	03e00008 	jr	ra
80002b78:	27bd0068 	addiu	sp,sp,104
80002b7c:	61447872 	0x61447872
80002b80:	3d206174 	0x3d206174
80002b84:	00000020 	add	zero,zero,zero
80002b88:	72570d0a 	d16mac	xr4,xr3,xr12,xr5,SA,LW
80002b8c:	20676e6f 	addi	a3,v1,28271
80002b90:	6974706f 	0x6974706f
80002b94:	20216e6f 	addi	at,at,28271
80002b98:	61656c50 	0x61656c50
80002b9c:	73206573 	d32sar	xr5,xr9,xr1,xr8,12
80002ba0:	63656c65 	0x63656c65
80002ba4:	6e6f2074 	0x6e6f2074
80002ba8:	666f2065 	0x666f2065
80002bac:	65687420 	0x65687420
80002bb0:	74706f20 	jalx	81c1bc80 <_gp+0x1c10958>
80002bb4:	736e6f69 	0x736e6f69
80002bb8:	6c656220 	0x6c656220
80002bbc:	002e776f 	0x2e776f
80002bc0:	74697845 	jalx	81a5e114 <_gp+0x1a52dec>
80002bc4:	20676e69 	addi	a3,v1,28265
80002bc8:	37544441 	ori	s4,k0,0x4441
80002bcc:	20303234 	addi	s0,at,12852
80002bd0:	74736574 	jalx	81cd95d0 <_gp+0x1cce2a8>
80002bd4:	70706120 	0x70706120
80002bd8:	6163696c 	0x6163696c
80002bdc:	6e6f6974 	0x6e6f6974
80002be0:	000d0a21 	0xd0a21
80002be4:	20495841 	addi	t1,v0,22593
80002be8:	20434949 	addi	v1,v0,18761
80002bec:	74696e69 	jalx	81a5b9a4 <_gp+0x1a5067c>
80002bf0:	696c6169 	0x696c6169
80002bf4:	2064657a 	addi	a0,v1,25978
80002bf8:	0a214b4f 	j	88852d3c <_gp+0x8847a14>
80002bfc:	0000000d 	break
80002c00:	20495841 	addi	t1,v0,22593
80002c04:	20434949 	addi	v1,v0,18761
80002c08:	6f727245 	0x6f727245
80002c0c:	0d0a2172 	jal	842885c8 <_gp+0x427d2a0>
80002c10:	00000000 	nop
80002c14:	69766552 	0x69766552
80002c18:	6e6f6973 	0x6e6f6973
80002c1c:	20444920 	addi	a0,v0,18720
80002c20:	0000203d 	0x203d
80002c24:	756e614d 	jalx	85b98534 <_gp+0x5b8d20c>
80002c28:	74636166 	jalx	818d8598 <_gp+0x18cd270>
80002c2c:	20657275 	addi	a1,v1,29301
80002c30:	3d204449 	0x3d204449
80002c34:	00000020 	add	zero,zero,zero
80002c38:	2d2d2d2d 	sltiu	t5,t1,11565
80002c3c:	2d2d2d2d 	sltiu	t5,t1,11565
80002c40:	2d2d2d2d 	sltiu	t5,t1,11565
80002c44:	2d2d2d2d 	sltiu	t5,t1,11565
80002c48:	2d2d2d2d 	sltiu	t5,t1,11565
80002c4c:	2d2d2d2d 	sltiu	t5,t1,11565
80002c50:	2d2d2d2d 	sltiu	t5,t1,11565
80002c54:	2d2d2d2d 	sltiu	t5,t1,11565
80002c58:	2d2d2d2d 	sltiu	t5,t1,11565
80002c5c:	2d2d2d2d 	sltiu	t5,t1,11565
80002c60:	000d0a2d 	0xd0a2d
80002c64:	44410d0a 	0x44410d0a
80002c68:	32343754 	andi	s4,s1,0x3754
80002c6c:	65442030 	0x65442030
80002c70:	50206f6d 	beqzl	at,8001ea28 <_gp+0x13700>
80002c74:	72676f72 	0x72676f72
80002c78:	0a206d61 	j	8881b584 <_gp+0x881025c>
80002c7c:	0000000d 	break
80002c80:	69617641 	0x69617641
80002c84:	6c62616c 	0x6c62616c
80002c88:	706f2065 	s8sdi	xr1,v1,-56,ptn3
80002c8c:	6e6f6974 	0x6e6f6974
80002c90:	0a203a73 	j	8880e9cc <_gp+0x88036a4>
80002c94:	0000000d 	break
80002c98:	5d745b09 	0x5d745b09
80002c9c:	61655220 	0x61655220
80002ca0:	65542064 	0x65542064
80002ca4:	7265706d 	s16sdi	xr1,s3,-328,ptn0
80002ca8:	72757461 	0x72757461
80002cac:	000d0a65 	0xd0a65
80002cb0:	5d725b09 	0x5d725b09
80002cb4:	74655320 	jalx	81954c80 <_gp+0x1949958>
80002cb8:	73655220 	0x73655220
80002cbc:	74756c6f 	jalx	81d5b1bc <_gp+0x1d4fe94>
80002cc0:	0a6e6f69 	j	89b9bda4 <_gp+0x9b90a7c>
80002cc4:	0000000d 	break
80002cc8:	5d685b09 	0x5d685b09
80002ccc:	74655320 	jalx	81954c80 <_gp+0x1949958>
80002cd0:	69485420 	0x69485420
80002cd4:	0d0a6867 	jal	8429a19c <_gp+0x428ee74>
80002cd8:	00000000 	nop
80002cdc:	5d6c5b09 	0x5d6c5b09
80002ce0:	74655320 	jalx	81954c80 <_gp+0x1949958>
80002ce4:	6f4c5420 	0x6f4c5420
80002ce8:	000d0a77 	0xd0a77
80002cec:	5d635b09 	0x5d635b09
80002cf0:	74655320 	jalx	81954c80 <_gp+0x1949958>
80002cf4:	72435420 	0x72435420
80002cf8:	0d0a7469 	jal	8429d1a4 <_gp+0x4291e7c>
80002cfc:	00000000 	nop
80002d00:	5d795b09 	0x5d795b09
80002d04:	74655320 	jalx	81954c80 <_gp+0x1949958>
80002d08:	79485420 	ld.b	$w16,328(t2)
80002d0c:	0d0a7473 	jal	8429d1cc <_gp+0x4291ea4>
80002d10:	00000000 	nop
80002d14:	5d665b09 	0x5d665b09
80002d18:	74655320 	jalx	81954c80 <_gp+0x1949958>
80002d1c:	75614620 	jalx	85851880 <_gp+0x5846558>
80002d20:	5120746c 	beqzl	t1,8001fed4 <_gp+0x14bac>
80002d24:	65756575 	0x65756575
80002d28:	00000d0a 	0xd0a
80002d2c:	5d735b09 	0x5d735b09
80002d30:	73694420 	0x73694420
80002d34:	79616c70 	0x79616c70
80002d38:	74655320 	jalx	81954c80 <_gp+0x1949958>
80002d3c:	676e6974 	0x676e6974
80002d40:	0d0a2073 	jal	842881cc <_gp+0x427cea4>
80002d44:	00000000 	nop
80002d48:	5d6d5b09 	0x5d6d5b09
80002d4c:	6f745320 	0x6f745320
80002d50:	68742070 	0x68742070
80002d54:	72702065 	s8sdi	xr1,s3,8,
80002d58:	6172676f 	0x6172676f
80002d5c:	6e61206d 	0x6e61206d
80002d60:	69642064 	0x69642064
80002d64:	616c7073 	0x616c7073
80002d68:	68742079 	0x68742079
80002d6c:	6d207369 	0x6d207369
80002d70:	0a756e65 	j	89d5b994 <_gp+0x9d5066c>
80002d74:	0000000d 	break
80002d78:	73657250 	s32ldd	xr9,k1,1392
80002d7c:	656b2073 	0x656b2073
80002d80:	6f742079 	0x6f742079
80002d84:	6c657320 	0x6c657320
80002d88:	20746365 	addi	s4,v1,25445
80002d8c:	69736564 	0x69736564
80002d90:	20646572 	addi	a0,v1,25970
80002d94:	6974706f 	0x6974706f
80002d98:	0d0a6e6f 	jal	8429b9bc <_gp+0x4290694>
80002d9c:	00000000 	nop
80002da0:	73657250 	s32ldd	xr9,k1,1392
80002da4:	715b2073 	d32sar	xr1,xr8,xr12,xr6,5
80002da8:	6f74205d 	0x6f74205d
80002dac:	69786520 	0x69786520
80002db0:	68742074 	0x68742074
80002db4:	70612065 	s8sdi	xr1,v1,72,ptn0
80002db8:	63696c70 	0x63696c70
80002dbc:	6f697461 	0x6f697461
80002dc0:	000d0a6e 	0xd0a6e
80002dc4:	76410d0a 	jalx	89043428 <_gp+0x9038100>
80002dc8:	616c6961 	0x616c6961
80002dcc:	20656c62 	addi	a1,v1,27746
80002dd0:	6974706f 	0x6974706f
80002dd4:	3a736e6f 	xori	s3,s3,0x6e6f
80002dd8:	000d0a20 	0xd0a20
80002ddc:	6f736552 	0x6f736552
80002de0:	6974756c 	0x6974756c
80002de4:	69206e6f 	0x69206e6f
80002de8:	33312073 	andi	s1,t9,0x2073
80002dec:	74696220 	jalx	81a58880 <_gp+0x1a4d558>
80002df0:	30282073 	andi	t0,at,0x2073
80002df4:	3236302e 	andi	s6,s1,0x302e
80002df8:	2f432035 	sltiu	v1,k0,8245
80002dfc:	2942534c 	slti	v0,t2,21324
80002e00:	00000d0a 	0xd0a
80002e04:	6f736552 	0x6f736552
80002e08:	6974756c 	0x6974756c
80002e0c:	69206e6f 	0x69206e6f
80002e10:	36312073 	ori	s1,s1,0x2073
80002e14:	74696220 	jalx	81a58880 <_gp+0x1a4d558>
80002e18:	30282073 	andi	t0,at,0x2073
80002e1c:	3730302e 	ori	s0,t9,0x302e
80002e20:	2f432038 	sltiu	v1,k0,8248
80002e24:	2942534c 	slti	v0,t2,21324
80002e28:	00000d0a 	0xd0a
80002e2c:	533e0d0a 	beql	t9,s8,80006258 <_end+0x2ebc>
80002e30:	52207465 	beqzl	s1,8001ffc8 <_gp+0x14ca0>
80002e34:	6c6f7365 	0x6c6f7365
80002e38:	6f697475 	0x6f697475
80002e3c:	654d206e 	0x654d206e
80002e40:	0d0a756e 	jal	8429d5b8 <_gp+0x4292290>
80002e44:	00000000 	nop
80002e48:	73736f50 	s32lddr	xr13,k1,876
80002e4c:	656c6269 	0x656c6269
80002e50:	73657220 	0x73657220
80002e54:	74756c6f 	jalx	81d5b1bc <_gp+0x1d4fe94>
80002e58:	736e6f69 	0x736e6f69
80002e5c:	65726120 	0x65726120
80002e60:	000d0a3a 	0xd0a3a
80002e64:	202e3109 	addi	t6,at,12553
80002e68:	62203331 	0x62203331
80002e6c:	20737469 	addi	s3,v1,29801
80002e70:	302e3028 	andi	t6,at,0x3028
80002e74:	20353236 	addi	s5,at,12854
80002e78:	534c2f43 	beql	k0,t4,8000eb88 <_gp+0x3860>
80002e7c:	0a3a2942 	j	88e8a508 <_gp+0x8e7f1e0>
80002e80:	0000000d 	break
80002e84:	202e3209 	addi	t6,at,12809
80002e88:	62203631 	0x62203631
80002e8c:	20737469 	addi	s3,v1,29801
80002e90:	302e3028 	andi	t6,at,0x3028
80002e94:	20383730 	addi	t8,at,14128
80002e98:	534c2f43 	beql	k0,t4,8000eba8 <_gp+0x3880>
80002e9c:	0a3a2942 	j	88e8a508 <_gp+0x8e7f1e0>
80002ea0:	0000000d 	break
80002ea4:	523e0d0a 	beql	s1,s8,800062d0 <_end+0x2f34>
80002ea8:	72757465 	s8sdi	xr1,s3,93,
80002eac:	676e696e 	0x676e696e
80002eb0:	206f7420 	addi	t7,v1,29728
80002eb4:	6e69614d 	0x6e69614d
80002eb8:	6e654d20 	0x6e654d20
80002ebc:	2e2e2e75 	sltiu	t6,s1,11893
80002ec0:	00000d0a 	0xd0a
80002ec4:	6e6f7257 	0x6e6f7257
80002ec8:	706f2067 	0x706f2067
80002ecc:	6e6f6974 	0x6e6f6974
80002ed0:	000d0a21 	0xd0a21
80002ed4:	203d2054 	addi	sp,at,8276
80002ed8:	00000000 	nop
80002edc:	2030302e 	addi	s0,at,12334
80002ee0:	000d0a43 	sra	at,t5,0x9
80002ee4:	203d2054 	addi	sp,at,8276
80002ee8:	0000002d 	0x2d
80002eec:	68430d0a 	0x68430d0a
80002ef0:	63617261 	0x63617261
80002ef4:	73726574 	q16sll	xr5,xr9,xr9,xr12,13
80002ef8:	746e6520 	jalx	81b99480 <_gp+0x1b8e158>
80002efc:	64657265 	0x64657265
80002f00:	73756d20 	0x73756d20
80002f04:	65622074 	0x65622074
80002f08:	58454820 	0x58454820
80002f0c:	6c617620 	0x6c617620
80002f10:	20736575 	addi	s3,v1,25973
80002f14:	74203028 	jalx	8080c0a0 <_gp+0x800d78>
80002f18:	2039206f 	addi	t9,at,8303
80002f1c:	20646e61 	addi	a0,v1,28257
80002f20:	20422041 	addi	v0,v0,8257
80002f24:	20442043 	addi	a0,v0,8259
80002f28:	29462045 	slti	a2,t2,8261
80002f2c:	00000d0a 	0xd0a
80002f30:	533e0d0a 	beql	t9,s8,8000635c <_end+0x2fc0>
80002f34:	54207465 	bnezl	at,800200cc <_gp+0x14da4>
80002f38:	68676948 	0x68676948
80002f3c:	6e654d20 	0x6e654d20
80002f40:	000d0a75 	0xd0a75
80002f44:	6c500d0a 	0x6c500d0a
80002f48:	65736165 	0x65736165
80002f4c:	746e6520 	jalx	81b99480 <_gp+0x1b8e158>
80002f50:	61207265 	0x61207265
80002f54:	6c617620 	0x6c617620
80002f58:	62206575 	0x62206575
80002f5c:	65777465 	0x65777465
80002f60:	30206e65 	andi	zero,at,0x6e65
80002f64:	30303078 	andi	s0,at,0x3078
80002f68:	6e612030 	0x6e612030
80002f6c:	78302064 	st.b	$w1,48(a0)
80002f70:	43333030 	c0	0x1333030
80002f74:	00000000 	nop
80002f78:	61560d0a 	0x61560d0a
80002f7c:	2065756c 	addi	a1,v1,30060
80002f80:	20726f66 	addi	s2,v1,28518
80002f84:	67694854 	0x67694854
80002f88:	756d2068 	jalx	85b481a0 <_gp+0x5b3ce78>
80002f8c:	62207473 	0x62207473
80002f90:	6e692065 	0x6e692065
80002f94:	65687420 	0x65687420
80002f98:	6e617220 	0x6e617220
80002f9c:	30206567 	andi	zero,at,0x6567
80002fa0:	30303078 	andi	s0,at,0x3078
80002fa4:	6e612030 	0x6e612030
80002fa8:	78302064 	st.b	$w1,48(a0)
80002fac:	43333030 	c0	0x1333030
80002fb0:	00000d0a 	0xd0a
80002fb4:	61656c50 	0x61656c50
80002fb8:	65206573 	0x65206573
80002fbc:	7265746e 	0x7265746e
80002fc0:	76206120 	jalx	88818480 <_gp+0x880d158>
80002fc4:	64696c61 	0x64696c61
80002fc8:	6c617620 	0x6c617620
80002fcc:	203a6575 	addi	k0,at,25973
80002fd0:	00007830 	tge	zero,zero,0x1e0
80002fd4:	0d0a0d0a 	jal	84283428 <_gp+0x4278100>
80002fd8:	7465523e 	jalx	819548f8 <_gp+0x19495d0>
80002fdc:	696e7275 	0x696e7275
80002fe0:	7420676e 	jalx	80819db8 <_gp+0x80ea90>
80002fe4:	614d206f 	0x614d206f
80002fe8:	4d206e69 	msub.d	$f25,$f9,$f13,$f0
80002fec:	2e756e65 	sltiu	s5,s3,28261
80002ff0:	0d0a2e2e 	jal	8428b8b8 <_gp+0x4280590>
80002ff4:	00000000 	nop
80002ff8:	67694854 	0x67694854
80002ffc:	65532068 	0x65532068
80003000:	696f7074 	0x696f7074
80003004:	0020746e 	0x20746e
80003008:	533e0d0a 	beql	t9,s8,80006434 <_end+0x3098>
8000300c:	54207465 	bnezl	at,800201a4 <_gp+0x14e7c>
80003010:	20776f4c 	addi	s7,v1,28492
80003014:	756e654d 	jalx	85b99534 <_gp+0x5b8e20c>
80003018:	00000d0a 	0xd0a
8000301c:	6c500d0a 	0x6c500d0a
80003020:	65736165 	0x65736165
80003024:	746e6520 	jalx	81b99480 <_gp+0x1b8e158>
80003028:	61207265 	0x61207265
8000302c:	6c617620 	0x6c617620
80003030:	62206575 	0x62206575
80003034:	65777465 	0x65777465
80003038:	30206e65 	andi	zero,at,0x6e65
8000303c:	30303078 	andi	s0,at,0x3078
80003040:	6e612030 	0x6e612030
80003044:	78302064 	st.b	$w1,48(a0)
80003048:	41303030 	0x41303030
8000304c:	00000000 	nop
80003050:	61560d0a 	0x61560d0a
80003054:	2065756c 	addi	a1,v1,30060
80003058:	20726f66 	addi	s2,v1,28518
8000305c:	776f4c54 	jalx	8dbd3150 <_gp+0xdbc7e28>
80003060:	73756d20 	0x73756d20
80003064:	65622074 	0x65622074
80003068:	206e6920 	addi	t6,v1,26912
8000306c:	20656874 	addi	a1,v1,26740
80003070:	676e6172 	0x676e6172
80003074:	78302065 	st.h	$w1,96(a0)
80003078:	30303030 	andi	s0,at,0x3030
8000307c:	646e6120 	0x646e6120
80003080:	30783020 	andi	t8,v1,0x3020
80003084:	0a413030 	j	8904c0c0 <_gp+0x9040d98>
80003088:	0000000d 	break
8000308c:	776f4c54 	jalx	8dbd3150 <_gp+0xdbc7e28>
80003090:	74655320 	jalx	81954c80 <_gp+0x1949958>
80003094:	6e696f70 	0x6e696f70
80003098:	00002074 	teq	zero,zero,0x81
8000309c:	533e0d0a 	beql	t9,s8,800064c8 <_end+0x312c>
800030a0:	54207465 	bnezl	at,80020238 <_gp+0x14f10>
800030a4:	74697243 	jalx	81a5c90c <_gp+0x1a515e4>
800030a8:	6e654d20 	0x6e654d20
800030ac:	000d0a75 	0xd0a75
800030b0:	6c500d0a 	0x6c500d0a
800030b4:	65736165 	0x65736165
800030b8:	746e6520 	jalx	81b99480 <_gp+0x1b8e158>
800030bc:	61207265 	0x61207265
800030c0:	6c617620 	0x6c617620
800030c4:	62206575 	0x62206575
800030c8:	65777465 	0x65777465
800030cc:	30206e65 	andi	zero,at,0x6e65
800030d0:	30303078 	andi	s0,at,0x3078
800030d4:	6e612030 	0x6e612030
800030d8:	78302064 	st.b	$w1,48(a0)
800030dc:	34363030 	ori	s6,at,0x3030
800030e0:	00000000 	nop
800030e4:	61560d0a 	0x61560d0a
800030e8:	2065756c 	addi	a1,v1,30060
800030ec:	20726f66 	addi	s2,v1,28518
800030f0:	69724354 	0x69724354
800030f4:	756d2074 	jalx	85b481d0 <_gp+0x5b3cea8>
800030f8:	62207473 	0x62207473
800030fc:	6e692065 	0x6e692065
80003100:	65687420 	0x65687420
80003104:	6e617220 	0x6e617220
80003108:	30206567 	andi	zero,at,0x6567
8000310c:	30303078 	andi	s0,at,0x3078
80003110:	6e612030 	0x6e612030
80003114:	78302064 	st.b	$w1,48(a0)
80003118:	34363030 	ori	s6,at,0x3030
8000311c:	00000d0a 	0xd0a
80003120:	69724354 	0x69724354
80003124:	65532074 	0x65532074
80003128:	696f7074 	0x696f7074
8000312c:	0020746e 	0x20746e
80003130:	533e0d0a 	beql	t9,s8,8000655c <_end+0x31c0>
80003134:	54207465 	bnezl	at,800202cc <_gp+0x14fa4>
80003138:	74737948 	jalx	81cde520 <_gp+0x1cd31f8>
8000313c:	6e654d20 	0x6e654d20
80003140:	000d0a75 	0xd0a75
80003144:	65746e45 	0x65746e45
80003148:	20612072 	addi	at,v1,8306
8000314c:	756c6176 	jalx	85b185d8 <_gp+0x5b0d2b0>
80003150:	72662065 	s8sdi	xr1,s3,-120,ptn1
80003154:	30206d6f 	andi	zero,at,0x6d6f
80003158:	30303078 	andi	s0,at,0x3078
8000315c:	6f742030 	0x6f742030
80003160:	30783020 	andi	t8,v1,0x3020
80003164:	3a463030 	xori	a2,s2,0x3030
80003168:	00783020 	add	a2,v1,t8
8000316c:	61560d0a 	0x61560d0a
80003170:	2065756c 	addi	a1,v1,30060
80003174:	20726f66 	addi	s2,v1,28518
80003178:	73794854 	s32ldir	xr1,k1,-1720
8000317c:	756d2074 	jalx	85b481d0 <_gp+0x5b3cea8>
80003180:	62207473 	0x62207473
80003184:	6e692065 	0x6e692065
80003188:	65687420 	0x65687420
8000318c:	6e617220 	0x6e617220
80003190:	30206567 	andi	zero,at,0x6567
80003194:	74204320 	jalx	80810c80 <_gp+0x805958>
80003198:	3531206f 	ori	s1,t1,0x206f
8000319c:	0d0a4320 	jal	84290c80 <_gp+0x4285958>
800031a0:	00000000 	nop
800031a4:	73794854 	s32ldir	xr1,k1,-1720
800031a8:	65532074 	0x65532074
800031ac:	696f7074 	0x696f7074
800031b0:	5420746e 	bnezl	at,8002036c <_gp+0x15044>
800031b4:	00203d20 	0x203d20
800031b8:	463e0d0a 	c1	0x3e0d0a
800031bc:	746c7561 	jalx	81b1d584 <_gp+0x1b1225c>
800031c0:	65755120 	0x65755120
800031c4:	4d206575 	0x4d206575
800031c8:	0a756e65 	j	89d5b994 <_gp+0x9d5066c>
800031cc:	0000000d 	break
800031d0:	626d754e 	0x626d754e
800031d4:	6f207265 	0x6f207265
800031d8:	61662066 	0x61662066
800031dc:	20746c75 	addi	s4,v1,27765
800031e0:	75657571 	jalx	8595d5c4 <_gp+0x595229c>
800031e4:	0a3a7365 	j	88e9cd94 <_gp+0x8e91a6c>
800031e8:	0000000d 	break
800031ec:	202e3109 	addi	t6,at,12553
800031f0:	61662031 	0x61662031
800031f4:	0a746c75 	j	89d1b1d4 <_gp+0x9d0feac>
800031f8:	0000000d 	break
800031fc:	202e3209 	addi	t6,at,12809
80003200:	61662032 	0x61662032
80003204:	73746c75 	q16slr	xr1,xr11,xr1,xr13,13
80003208:	00000d0a 	0xd0a
8000320c:	202e3309 	addi	t6,at,13065
80003210:	61662033 	0x61662033
80003214:	73746c75 	q16slr	xr1,xr11,xr1,xr13,13
80003218:	00000d0a 	0xd0a
8000321c:	202e3409 	addi	t6,at,13321
80003220:	61662034 	0x61662034
80003224:	73746c75 	q16slr	xr1,xr11,xr1,xr13,13
80003228:	00000d0a 	0xd0a
8000322c:	61662031 	0x61662031
80003230:	20746c75 	addi	s4,v1,27765
80003234:	75657571 	jalx	8595d5c4 <_gp+0x595229c>
80003238:	000d0a65 	0xd0a65
8000323c:	61662032 	0x61662032
80003240:	20746c75 	addi	s4,v1,27765
80003244:	75657571 	jalx	8595d5c4 <_gp+0x595229c>
80003248:	0d0a7365 	jal	8429cd94 <_gp+0x4291a6c>
8000324c:	00000000 	nop
80003250:	61662033 	0x61662033
80003254:	20746c75 	addi	s4,v1,27765
80003258:	75657571 	jalx	8595d5c4 <_gp+0x595229c>
8000325c:	0d0a7365 	jal	8429cd94 <_gp+0x4291a6c>
80003260:	00000000 	nop
80003264:	61662034 	0x61662034
80003268:	20746c75 	addi	s4,v1,27765
8000326c:	75657571 	jalx	8595d5c4 <_gp+0x595229c>
80003270:	0d0a7365 	jal	8429cd94 <_gp+0x4291a6c>
80003274:	00000000 	nop
80003278:	72656c41 	0x72656c41
8000327c:	6f4d2074 	0x6f4d2074
80003280:	203a6564 	addi	k0,at,25956
80003284:	706d6f43 	0x706d6f43
80003288:	74617261 	jalx	8185c984 <_gp+0x185165c>
8000328c:	0d0a726f 	jal	8429c9bc <_gp+0x4291694>
80003290:	00000000 	nop
80003294:	72656c41 	0x72656c41
80003298:	6f4d2074 	0x6f4d2074
8000329c:	203a6564 	addi	k0,at,25956
800032a0:	65746e49 	0x65746e49
800032a4:	70757272 	0x70757272
800032a8:	000d0a74 	teq	zero,t5,0x29
800032ac:	70205443 	0x70205443
800032b0:	69206e69 	0x69206e69
800032b4:	63412073 	0x63412073
800032b8:	65766974 	0x65766974
800032bc:	67694820 	0x67694820
800032c0:	000d0a68 	0xd0a68
800032c4:	70205443 	0x70205443
800032c8:	69206e69 	0x69206e69
800032cc:	63412073 	0x63412073
800032d0:	65766974 	0x65766974
800032d4:	776f4c20 	jalx	8dbd3080 <_gp+0xdbc7d58>
800032d8:	00000d0a 	0xd0a
800032dc:	20544e49 	addi	s4,v0,20041
800032e0:	206e6970 	addi	t6,v1,26992
800032e4:	41207369 	0x41207369
800032e8:	76697463 	jalx	89a5d18c <_gp+0x9a51e64>
800032ec:	69482065 	0x69482065
800032f0:	0d0a6867 	jal	8429a19c <_gp+0x428ee74>
800032f4:	00000000 	nop
800032f8:	20544e49 	addi	s4,v0,20041
800032fc:	206e6970 	addi	t6,v1,26992
80003300:	41207369 	0x41207369
80003304:	76697463 	jalx	89a5d18c <_gp+0x9a51e64>
80003308:	6f4c2065 	0x6f4c2065
8000330c:	000d0a77 	0xd0a77
80003310:	41200d0a 	0x41200d0a
80003314:	34375444 	ori	s7,at,0x5444
80003318:	53203032 	beqzl	t9,8000f3e4 <_gp+0x40bc>
8000331c:	69747465 	0x69747465
80003320:	2073676e 	addi	s3,v1,26478
80003324:	00000d0a 	0xd0a
